   1               		.file	"main.c"
   2               	__SREG__ = 0x3f
   3               	__SP_H__ = 0x3e
   4               	__SP_L__ = 0x3d
   5               	__CCP__  = 0x34
   6               	__tmp_reg__ = 0
   7               	__zero_reg__ = 1
  15               	.Ltext0:
  17               	eeprom_read_byte:
  18               	.LFB8:
  19               	.LM1:
  20               	.LVL0:
  21               	/* prologue: function */
  22               	/* frame size = 0 */
  23 0000 9C01      		movw r18,r24
  24               	.LVL1:
  25               	.L2:
  26               	.LM2:
  27 0002 F999      		sbic 63-32,1
  28 0004 00C0      		rjmp .L2
  29               	.LM3:
  30 0006 32BD      		out (65)+1-32,r19
  31 0008 21BD      		out 65-32,r18
  32               	.LM4:
  33               	/* #APP */
  34               	 ;  208 "c:/winavr-20090313/lib/gcc/../../avr/include/avr/eeprom.h" 1
  35               		/* START EEPROM READ CRITICAL SECTION */ 
  36 000a F89A      		sbi 31, 0 
  37 000c 80B5      		in r24, 32 
  38               		/* END EEPROM READ CRITICAL SECTION */ 
  39               		
  40               	 ;  0 "" 2
  41               	.LVL2:
  42               	.LVL3:
  43               	/* epilogue start */
  44               	.LM5:
  45               	/* #NOAPP */
  46 000e 0895      		ret
  47               	.LFE8:
  50               	eeprom_write_byte:
  51               	.LFB12:
  52               	.LM6:
  53               	.LVL4:
  54               	/* prologue: function */
  55               	/* frame size = 0 */
  56 0010 9C01      		movw r18,r24
  57               	.LVL5:
  58               	.L6:
  59               	.LM7:
  60 0012 F999      		sbic 63-32,1
  61 0014 00C0      		rjmp .L6
  62               	.LM8:
  63 0016 1FBA      		out 63-32,__zero_reg__
  64               	.LM9:
  65 0018 32BD      		out (65)+1-32,r19
  66 001a 21BD      		out 65-32,r18
  67               	.LM10:
  68 001c 60BD      		out 64-32,r22
  69               	.LM11:
  70               	/* #APP */
  71               	 ;  315 "c:/winavr-20090313/lib/gcc/../../avr/include/avr/eeprom.h" 1
  72               		/* START EEPROM WRITE CRITICAL SECTION */
  73 001e 0FB6      		in	r0, 63		
  74 0020 F894      		cli				
  75 0022 FA9A      		sbi	31, 2	
  76 0024 F99A      		sbi	31, 1	
  77 0026 0FBE      		out	63, r0		
  78               		/* END EEPROM WRITE CRITICAL SECTION */
  79               	 ;  0 "" 2
  80               	/* epilogue start */
  81               	.LM12:
  82               	/* #NOAPP */
  83 0028 0895      		ret
  84               	.LFE12:
  86               	.global	get_config_constants
  88               	get_config_constants:
  89               	.LFB20:
  90               	.LM13:
  91 002a CF93      		push r28
  92 002c DF93      		push r29
  93               	/* prologue: function */
  94               	/* frame size = 0 */
  95               	.LM14:
  96 002e E0E0      		ldi r30,lo8(0)
  97 0030 F0E0      		ldi r31,hi8(0)
  98 0032 20E0      		ldi r18,lo8(0)
  99 0034 30E0      		ldi r19,hi8(0)
 100 0036 40E0      		ldi r20,hlo8(0)
 101 0038 50E0      		ldi r21,hhi8(0)
 102               	.LBB166:
 103               	.LBB167:
 104               	.LBB168:
 105               	.LBB169:
 106               	.LM15:
 107 003a A0E5      		ldi r26,lo8(-15536)
 108 003c B3EC      		ldi r27,hi8(-15536)
 109 003e 00C0      		rjmp .L10
 110               	.LVL6:
 111               	.L12:
 112               	.LBE169:
 113               	.LBE168:
 114               	.LBE167:
 115               	.LBE166:
 116               	.LBB173:
 117               	.LBB174:
 118               	.LM16:
 119 0040 8091 7A00 		lds r24,122
 120               	.LVL7:
 121 0044 8064      		ori r24,lo8(64)
 122 0046 8093 7A00 		sts 122,r24
 123               	.L11:
 124               	.LM17:
 125 004a 8091 7A00 		lds r24,122
 126 004e 86FD      		sbrc r24,6
 127 0050 00C0      		rjmp .L11
 128               	.LM18:
 129 0052 9091 7800 		lds r25,120
 130               	.LM19:
 131 0056 8091 7900 		lds r24,121
 132               	.LBE174:
 133               	.LBE173:
 134               	.LM20:
 135 005a 782F      		mov r23,r24
 136 005c 60E0      		ldi r22,lo8(0)
 137 005e EB01      		movw r28,r22
 138 0060 C90F      		add r28,r25
 139 0062 D11D      		adc r29,__zero_reg__
 140 0064 EC0F      		add r30,r28
 141 0066 FD1F      		adc r31,r29
 142               	.LBB175:
 143               	.LBB172:
 144               	.LBB171:
 145               	.LBB170:
 146               	.LM21:
 147 0068 CD01      		movw r24,r26
 148               	.LVL8:
 149               	/* #APP */
 150               	 ;  105 "c:/winavr-20090313/lib/gcc/../../avr/include/util/delay_basic.h" 1
 151 006a 0197      		1: sbiw r24,1
 152 006c 01F4      		brne 1b
 153               	 ;  0 "" 2
 154               	/* #NOAPP */
 155 006e 2F5F      		subi r18,lo8(-(1))
 156 0070 3F4F      		sbci r19,hi8(-(1))
 157 0072 4F4F      		sbci r20,hlo8(-(1))
 158 0074 5F4F      		sbci r21,hhi8(-(1))
 159               	.L10:
 160               	.LBE170:
 161               	.LBE171:
 162               	.LBE172:
 163               	.LBE175:
 164               	.LM22:
 165 0076 2431      		cpi r18,lo8(20)
 166 0078 3105      		cpc r19,__zero_reg__
 167 007a 4105      		cpc r20,__zero_reg__
 168 007c 5105      		cpc r21,__zero_reg__
 169 007e 04F0      		brlt .L12
 170               	.LM23:
 171 0080 CF01      		movw r24,r30
 172               	.LVL9:
 173 0082 64E1      		ldi r22,lo8(20)
 174 0084 70E0      		ldi r23,hi8(20)
 175 0086 0E94 0000 		call __divmodhi4
 176 008a 7093 0000 		sts (base_accel)+1,r23
 177 008e 6093 0000 		sts base_accel,r22
 178 0092 60E0      		ldi r22,lo8(0)
 179 0094 70E0      		ldi r23,hi8(0)
 180 0096 20E0      		ldi r18,lo8(0)
 181 0098 30E0      		ldi r19,hi8(0)
 182 009a 40E0      		ldi r20,hlo8(0)
 183 009c 50E0      		ldi r21,hhi8(0)
 184               	.LBB176:
 185               	.LBB177:
 186               	.LBB178:
 187               	.LBB179:
 188               	.LM24:
 189 009e C4EF      		ldi r28,lo8(500)
 190 00a0 D1E0      		ldi r29,hi8(500)
 191 00a2 00C0      		rjmp .L13
 192               	.LVL10:
 193               	.L15:
 194               	.LBE179:
 195               	.LBE178:
 196               	.LBE177:
 197               	.LBE176:
 198               	.LM25:
 199 00a4 8091 0000 		lds r24,leftright
 200 00a8 9091 0000 		lds r25,(leftright)+1
 201 00ac A091 0000 		lds r26,(leftright)+2
 202 00b0 B091 0000 		lds r27,(leftright)+3
 203               	.LVL11:
 204 00b4 680F      		add r22,r24
 205 00b6 791F      		adc r23,r25
 206 00b8 88EC      		ldi r24,lo8(200)
 207 00ba 90E0      		ldi r25,hi8(200)
 208               	.LVL12:
 209               	.L14:
 210               	.LBB183:
 211               	.LBB182:
 212               	.LBB181:
 213               	.LBB180:
 214               	.LM26:
 215 00bc FE01      		movw r30,r28
 216               	/* #APP */
 217               	 ;  105 "c:/winavr-20090313/lib/gcc/../../avr/include/util/delay_basic.h" 1
 218 00be 3197      		1: sbiw r30,1
 219 00c0 01F4      		brne 1b
 220               	 ;  0 "" 2
 221               	/* #NOAPP */
 222               	.LBE180:
 223               	.LBE181:
 224               	.LM27:
 225 00c2 0197      		sbiw r24,1
 226               	.LM28:
 227 00c4 01F4      		brne .L14
 228 00c6 2F5F      		subi r18,lo8(-(1))
 229 00c8 3F4F      		sbci r19,hi8(-(1))
 230 00ca 4F4F      		sbci r20,hlo8(-(1))
 231 00cc 5F4F      		sbci r21,hhi8(-(1))
 232               	.L13:
 233               	.LBE182:
 234               	.LBE183:
 235               	.LM29:
 236 00ce 2431      		cpi r18,lo8(20)
 237 00d0 3105      		cpc r19,__zero_reg__
 238 00d2 4105      		cpc r20,__zero_reg__
 239 00d4 5105      		cpc r21,__zero_reg__
 240 00d6 04F0      		brlt .L15
 241 00d8 2093 0000 		sts x,r18
 242 00dc 3093 0000 		sts (x)+1,r19
 243 00e0 4093 0000 		sts (x)+2,r20
 244 00e4 5093 0000 		sts (x)+3,r21
 245               	.LM30:
 246 00e8 CB01      		movw r24,r22
 247               	.LVL13:
 248 00ea 64E1      		ldi r22,lo8(20)
 249 00ec 70E0      		ldi r23,hi8(20)
 250 00ee 0E94 0000 		call __divmodhi4
 251 00f2 7093 0000 		sts (heading_center)+1,r23
 252 00f6 6093 0000 		sts heading_center,r22
 253               	/* epilogue start */
 254               	.LM31:
 255 00fa DF91      		pop r29
 256 00fc CF91      		pop r28
 257 00fe 0895      		ret
 258               	.LFE20:
 260               	.global	config_mode
 262               	config_mode:
 263               	.LFB21:
 264               	.LM32:
 265 0100 AF92      		push r10
 266 0102 BF92      		push r11
 267 0104 CF92      		push r12
 268 0106 DF92      		push r13
 269 0108 EF92      		push r14
 270 010a FF92      		push r15
 271 010c 0F93      		push r16
 272 010e 1F93      		push r17
 273 0110 CF93      		push r28
 274 0112 DF93      		push r29
 275               	/* prologue: function */
 276               	/* frame size = 0 */
 277               	.LM33:
 278 0114 A090 0000 		lds r10,config_mode_throttle_percent
 279 0118 B090 0000 		lds r11,(config_mode_throttle_percent)+1
 280 011c C090 0000 		lds r12,(config_mode_throttle_percent)+2
 281 0120 D090 0000 		lds r13,(config_mode_throttle_percent)+3
 282 0124 C601      		movw r24,r12
 283 0126 B501      		movw r22,r10
 284 0128 20E0      		ldi r18,lo8(0x42480000)
 285 012a 30E0      		ldi r19,hi8(0x42480000)
 286 012c 48E4      		ldi r20,hlo8(0x42480000)
 287 012e 52E4      		ldi r21,hhi8(0x42480000)
 288 0130 0E94 0000 		call __ltsf2
 289 0134 8823      		tst r24
 290 0136 04F0      		brlt .+2
 291 0138 00C0      		rjmp .L20
 292               	.LM34:
 293 013a 1092 0000 		sts (flashy_led)+1,__zero_reg__
 294 013e 1092 0000 		sts flashy_led,__zero_reg__
 295               	.LM35:
 296 0142 2091 0000 		lds r18,leftright
 297 0146 3091 0000 		lds r19,(leftright)+1
 298 014a 4091 0000 		lds r20,(leftright)+2
 299 014e 5091 0000 		lds r21,(leftright)+3
 300 0152 C091 0000 		lds r28,heading_center
 301 0156 D091 0000 		lds r29,(heading_center)+1
 302 015a 8091 0000 		lds r24,heading_leftthresh
 303 015e 9091 0000 		lds r25,(heading_leftthresh)+1
 304 0162 8C0F      		add r24,r28
 305 0164 9D1F      		adc r25,r29
 306 0166 AA27      		clr r26
 307 0168 97FD      		sbrc r25,7
 308 016a A095      		com r26
 309 016c BA2F      		mov r27,r26
 310 016e 8217      		cp r24,r18
 311 0170 9307      		cpc r25,r19
 312 0172 A407      		cpc r26,r20
 313 0174 B507      		cpc r27,r21
 314 0176 04F4      		brge .L22
 315 0178 E090 0000 		lds r14,tracking_comp
 316 017c F090 0000 		lds r15,(tracking_comp)+1
 317 0180 0091 0000 		lds r16,(tracking_comp)+2
 318 0184 1091 0000 		lds r17,(tracking_comp)+3
 319 0188 C801      		movw r24,r16
 320 018a B701      		movw r22,r14
 321 018c 26EA      		ldi r18,lo8(0x3b449ba6)
 322 018e 3BE9      		ldi r19,hi8(0x3b449ba6)
 323 0190 44E4      		ldi r20,hlo8(0x3b449ba6)
 324 0192 5BE3      		ldi r21,hhi8(0x3b449ba6)
 325 0194 0E94 0000 		call __mulsf3
 326 0198 9B01      		movw r18,r22
 327 019a AC01      		movw r20,r24
 328 019c C801      		movw r24,r16
 329 019e B701      		movw r22,r14
 330 01a0 0E94 0000 		call __addsf3
 331 01a4 6093 0000 		sts tracking_comp,r22
 332 01a8 7093 0000 		sts (tracking_comp)+1,r23
 333 01ac 8093 0000 		sts (tracking_comp)+2,r24
 334 01b0 9093 0000 		sts (tracking_comp)+3,r25
 335 01b4 81E0      		ldi r24,lo8(1)
 336 01b6 90E0      		ldi r25,hi8(1)
 337 01b8 9093 0000 		sts (flashy_led)+1,r25
 338 01bc 8093 0000 		sts flashy_led,r24
 339               	.L22:
 340               	.LM36:
 341 01c0 2091 0000 		lds r18,leftright
 342 01c4 3091 0000 		lds r19,(leftright)+1
 343 01c8 4091 0000 		lds r20,(leftright)+2
 344 01cc 5091 0000 		lds r21,(leftright)+3
 345 01d0 8091 0000 		lds r24,heading_rightthresh
 346 01d4 9091 0000 		lds r25,(heading_rightthresh)+1
 347 01d8 C80F      		add r28,r24
 348 01da D91F      		adc r29,r25
 349 01dc CE01      		movw r24,r28
 350 01de AA27      		clr r26
 351 01e0 97FD      		sbrc r25,7
 352 01e2 A095      		com r26
 353 01e4 BA2F      		mov r27,r26
 354 01e6 2817      		cp r18,r24
 355 01e8 3907      		cpc r19,r25
 356 01ea 4A07      		cpc r20,r26
 357 01ec 5B07      		cpc r21,r27
 358 01ee 04F4      		brge .L23
 359 01f0 E090 0000 		lds r14,tracking_comp
 360 01f4 F090 0000 		lds r15,(tracking_comp)+1
 361 01f8 0091 0000 		lds r16,(tracking_comp)+2
 362 01fc 1091 0000 		lds r17,(tracking_comp)+3
 363 0200 C801      		movw r24,r16
 364 0202 B701      		movw r22,r14
 365 0204 26EA      		ldi r18,lo8(0xbb449ba6)
 366 0206 3BE9      		ldi r19,hi8(0xbb449ba6)
 367 0208 44E4      		ldi r20,hlo8(0xbb449ba6)
 368 020a 5BEB      		ldi r21,hhi8(0xbb449ba6)
 369 020c 0E94 0000 		call __mulsf3
 370 0210 9B01      		movw r18,r22
 371 0212 AC01      		movw r20,r24
 372 0214 C801      		movw r24,r16
 373 0216 B701      		movw r22,r14
 374 0218 0E94 0000 		call __addsf3
 375 021c 6093 0000 		sts tracking_comp,r22
 376 0220 7093 0000 		sts (tracking_comp)+1,r23
 377 0224 8093 0000 		sts (tracking_comp)+2,r24
 378 0228 9093 0000 		sts (tracking_comp)+3,r25
 379 022c 81E0      		ldi r24,lo8(1)
 380 022e 90E0      		ldi r25,hi8(1)
 381 0230 9093 0000 		sts (flashy_led)+1,r25
 382 0234 8093 0000 		sts flashy_led,r24
 383               	.L23:
 384               	.LM37:
 385 0238 6091 0000 		lds r22,tracking_comp
 386 023c 7091 0000 		lds r23,(tracking_comp)+1
 387 0240 8091 0000 		lds r24,(tracking_comp)+2
 388 0244 9091 0000 		lds r25,(tracking_comp)+3
 389 0248 2DEC      		ldi r18,lo8(0x3dcccccd)
 390 024a 3CEC      		ldi r19,hi8(0x3dcccccd)
 391 024c 4CEC      		ldi r20,hlo8(0x3dcccccd)
 392 024e 5DE3      		ldi r21,hhi8(0x3dcccccd)
 393 0250 0E94 0000 		call __ltsf2
 394 0254 8823      		tst r24
 395 0256 04F4      		brge .L24
 396 0258 8DEC      		ldi r24,lo8(0x3dcccccd)
 397 025a 9CEC      		ldi r25,hi8(0x3dcccccd)
 398 025c ACEC      		ldi r26,hlo8(0x3dcccccd)
 399 025e BDE3      		ldi r27,hhi8(0x3dcccccd)
 400 0260 8093 0000 		sts tracking_comp,r24
 401 0264 9093 0000 		sts (tracking_comp)+1,r25
 402 0268 A093 0000 		sts (tracking_comp)+2,r26
 403 026c B093 0000 		sts (tracking_comp)+3,r27
 404               	.L24:
 405               	.LM38:
 406 0270 6091 0000 		lds r22,tracking_comp
 407 0274 7091 0000 		lds r23,(tracking_comp)+1
 408 0278 8091 0000 		lds r24,(tracking_comp)+2
 409 027c 9091 0000 		lds r25,(tracking_comp)+3
 410 0280 20E0      		ldi r18,lo8(0x41200000)
 411 0282 30E0      		ldi r19,hi8(0x41200000)
 412 0284 40E2      		ldi r20,hlo8(0x41200000)
 413 0286 51E4      		ldi r21,hhi8(0x41200000)
 414 0288 0E94 0000 		call __gtsf2
 415 028c 1816      		cp __zero_reg__,r24
 416 028e 04F4      		brge .L20
 417 0290 80E0      		ldi r24,lo8(0x41200000)
 418 0292 90E0      		ldi r25,hi8(0x41200000)
 419 0294 A0E2      		ldi r26,hlo8(0x41200000)
 420 0296 B1E4      		ldi r27,hhi8(0x41200000)
 421 0298 8093 0000 		sts tracking_comp,r24
 422 029c 9093 0000 		sts (tracking_comp)+1,r25
 423 02a0 A093 0000 		sts (tracking_comp)+2,r26
 424 02a4 B093 0000 		sts (tracking_comp)+3,r27
 425               	.L20:
 426               	.LM39:
 427 02a8 C601      		movw r24,r12
 428 02aa B501      		movw r22,r10
 429 02ac 20E0      		ldi r18,lo8(0x42480000)
 430 02ae 30E0      		ldi r19,hi8(0x42480000)
 431 02b0 48E4      		ldi r20,hlo8(0x42480000)
 432 02b2 52E4      		ldi r21,hhi8(0x42480000)
 433 02b4 0E94 0000 		call __gesf2
 434 02b8 8823      		tst r24
 435 02ba 04F4      		brge .+2
 436 02bc 00C0      		rjmp .L35
 437 02be C601      		movw r24,r12
 438 02c0 B501      		movw r22,r10
 439 02c2 20E0      		ldi r18,lo8(0x42b40000)
 440 02c4 30E0      		ldi r19,hi8(0x42b40000)
 441 02c6 44EB      		ldi r20,hlo8(0x42b40000)
 442 02c8 52E4      		ldi r21,hhi8(0x42b40000)
 443 02ca 0E94 0000 		call __ltsf2
 444 02ce 8823      		tst r24
 445 02d0 04F0      		brlt .+2
 446 02d2 00C0      		rjmp .L35
 447               	.LM40:
 448 02d4 81E0      		ldi r24,lo8(1)
 449 02d6 90E0      		ldi r25,hi8(1)
 450 02d8 9093 0000 		sts (flashy_led)+1,r25
 451 02dc 8093 0000 		sts flashy_led,r24
 452               	.LM41:
 453 02e0 2091 0000 		lds r18,leftright
 454 02e4 3091 0000 		lds r19,(leftright)+1
 455 02e8 4091 0000 		lds r20,(leftright)+2
 456 02ec 5091 0000 		lds r21,(leftright)+3
 457 02f0 C091 0000 		lds r28,heading_center
 458 02f4 D091 0000 		lds r29,(heading_center)+1
 459 02f8 8091 0000 		lds r24,heading_leftthresh
 460 02fc 9091 0000 		lds r25,(heading_leftthresh)+1
 461 0300 8C0F      		add r24,r28
 462 0302 9D1F      		adc r25,r29
 463 0304 AA27      		clr r26
 464 0306 97FD      		sbrc r25,7
 465 0308 A095      		com r26
 466 030a BA2F      		mov r27,r26
 467 030c 8217      		cp r24,r18
 468 030e 9307      		cpc r25,r19
 469 0310 A407      		cpc r26,r20
 470 0312 B507      		cpc r27,r21
 471 0314 04F4      		brge .L30
 472 0316 6091 0000 		lds r22,led_adjust
 473 031a 7091 0000 		lds r23,(led_adjust)+1
 474 031e 8091 0000 		lds r24,(led_adjust)+2
 475 0322 9091 0000 		lds r25,(led_adjust)+3
 476 0326 20E0      		ldi r18,lo8(0x3f800000)
 477 0328 30E0      		ldi r19,hi8(0x3f800000)
 478 032a 40E8      		ldi r20,hlo8(0x3f800000)
 479 032c 5FE3      		ldi r21,hhi8(0x3f800000)
 480 032e 0E94 0000 		call __addsf3
 481 0332 6093 0000 		sts led_adjust,r22
 482 0336 7093 0000 		sts (led_adjust)+1,r23
 483 033a 8093 0000 		sts (led_adjust)+2,r24
 484 033e 9093 0000 		sts (led_adjust)+3,r25
 485 0342 1092 0000 		sts (flashy_led)+1,__zero_reg__
 486 0346 1092 0000 		sts flashy_led,__zero_reg__
 487               	.L30:
 488               	.LM42:
 489 034a 2091 0000 		lds r18,leftright
 490 034e 3091 0000 		lds r19,(leftright)+1
 491 0352 4091 0000 		lds r20,(leftright)+2
 492 0356 5091 0000 		lds r21,(leftright)+3
 493 035a 8091 0000 		lds r24,heading_rightthresh
 494 035e 9091 0000 		lds r25,(heading_rightthresh)+1
 495 0362 C80F      		add r28,r24
 496 0364 D91F      		adc r29,r25
 497 0366 CE01      		movw r24,r28
 498 0368 AA27      		clr r26
 499 036a 97FD      		sbrc r25,7
 500 036c A095      		com r26
 501 036e BA2F      		mov r27,r26
 502 0370 2817      		cp r18,r24
 503 0372 3907      		cpc r19,r25
 504 0374 4A07      		cpc r20,r26
 505 0376 5B07      		cpc r21,r27
 506 0378 04F4      		brge .L31
 507 037a 6091 0000 		lds r22,led_adjust
 508 037e 7091 0000 		lds r23,(led_adjust)+1
 509 0382 8091 0000 		lds r24,(led_adjust)+2
 510 0386 9091 0000 		lds r25,(led_adjust)+3
 511 038a 20E0      		ldi r18,lo8(0x3f800000)
 512 038c 30E0      		ldi r19,hi8(0x3f800000)
 513 038e 40E8      		ldi r20,hlo8(0x3f800000)
 514 0390 5FE3      		ldi r21,hhi8(0x3f800000)
 515 0392 0E94 0000 		call __subsf3
 516 0396 6093 0000 		sts led_adjust,r22
 517 039a 7093 0000 		sts (led_adjust)+1,r23
 518 039e 8093 0000 		sts (led_adjust)+2,r24
 519 03a2 9093 0000 		sts (led_adjust)+3,r25
 520 03a6 1092 0000 		sts (flashy_led)+1,__zero_reg__
 521 03aa 1092 0000 		sts flashy_led,__zero_reg__
 522               	.L31:
 523               	.LM43:
 524 03ae 6091 0000 		lds r22,led_adjust
 525 03b2 7091 0000 		lds r23,(led_adjust)+1
 526 03b6 8091 0000 		lds r24,(led_adjust)+2
 527 03ba 9091 0000 		lds r25,(led_adjust)+3
 528 03be 20E0      		ldi r18,lo8(0x0)
 529 03c0 30E0      		ldi r19,hi8(0x0)
 530 03c2 40E0      		ldi r20,hlo8(0x0)
 531 03c4 50E0      		ldi r21,hhi8(0x0)
 532 03c6 0E94 0000 		call __ltsf2
 533 03ca 8823      		tst r24
 534 03cc 04F4      		brge .L32
 535 03ce 80E0      		ldi r24,lo8(0x42c80000)
 536 03d0 90E0      		ldi r25,hi8(0x42c80000)
 537 03d2 A8EC      		ldi r26,hlo8(0x42c80000)
 538 03d4 B2E4      		ldi r27,hhi8(0x42c80000)
 539 03d6 8093 0000 		sts led_adjust,r24
 540 03da 9093 0000 		sts (led_adjust)+1,r25
 541 03de A093 0000 		sts (led_adjust)+2,r26
 542 03e2 B093 0000 		sts (led_adjust)+3,r27
 543               	.L32:
 544               	.LM44:
 545 03e6 6091 0000 		lds r22,led_adjust
 546 03ea 7091 0000 		lds r23,(led_adjust)+1
 547 03ee 8091 0000 		lds r24,(led_adjust)+2
 548 03f2 9091 0000 		lds r25,(led_adjust)+3
 549 03f6 20E0      		ldi r18,lo8(0x42c80000)
 550 03f8 30E0      		ldi r19,hi8(0x42c80000)
 551 03fa 48EC      		ldi r20,hlo8(0x42c80000)
 552 03fc 52E4      		ldi r21,hhi8(0x42c80000)
 553 03fe 0E94 0000 		call __gtsf2
 554 0402 1816      		cp __zero_reg__,r24
 555 0404 04F4      		brge .L35
 556 0406 80E0      		ldi r24,lo8(0x0)
 557 0408 90E0      		ldi r25,hi8(0x0)
 558 040a A0E0      		ldi r26,hlo8(0x0)
 559 040c B0E0      		ldi r27,hhi8(0x0)
 560 040e 8093 0000 		sts led_adjust,r24
 561 0412 9093 0000 		sts (led_adjust)+1,r25
 562 0416 A093 0000 		sts (led_adjust)+2,r26
 563 041a B093 0000 		sts (led_adjust)+3,r27
 564               	.L35:
 565               	/* epilogue start */
 566               	.LM45:
 567 041e DF91      		pop r29
 568 0420 CF91      		pop r28
 569 0422 1F91      		pop r17
 570 0424 0F91      		pop r16
 571 0426 FF90      		pop r15
 572 0428 EF90      		pop r14
 573 042a DF90      		pop r13
 574 042c CF90      		pop r12
 575 042e BF90      		pop r11
 576 0430 AF90      		pop r10
 577 0432 0895      		ret
 578               	.LFE21:
 580               	.global	setup
 582               	setup:
 583               	.LFB22:
 584               	.LM46:
 585               	/* prologue: function */
 586               	/* frame size = 0 */
 587               	.LBB184:
 588               	.LBB185:
 589               	.LM47:
 590 0434 1092 7B00 		sts 123,__zero_reg__
 591               	.LM48:
 592 0438 86E8      		ldi r24,lo8(-122)
 593 043a 8093 7A00 		sts 122,r24
 594               	.LM49:
 595 043e 84E0      		ldi r24,lo8(4)
 596 0440 8093 7C00 		sts 124,r24
 597               	.LBE185:
 598               	.LBE184:
 599               	.LM50:
 600 0444 2098      		cbi 36-32,0
 601               	.LM51:
 602 0446 2198      		cbi 36-32,1
 603               	.LM52:
 604 0448 2298      		cbi 36-32,2
 605               	.LM53:
 606 044a 3C98      		cbi 39-32,4
 607               	.LM54:
 608 044c 509A      		sbi 42-32,0
 609               	.LM55:
 610 044e 589A      		sbi 43-32,0
 611               	.LM56:
 612 0450 559A      		sbi 42-32,5
 613               	.LM57:
 614 0452 529A      		sbi 42-32,2
 615               	.LM58:
 616 0454 549A      		sbi 42-32,4
 617               	.LM59:
 618 0456 5D9A      		sbi 43-32,5
 619               	.LM60:
 620 0458 8FEF      		ldi r24,lo8(-1)
 621 045a 8093 6B00 		sts 107,r24
 622               	.LM61:
 623 045e 81E0      		ldi r24,lo8(1)
 624 0460 8093 6800 		sts 104,r24
 625               	.LBB186:
 626               	.LBB187:
 627               	.LM62:
 628 0464 1092 8000 		sts 128,__zero_reg__
 629               	.LM63:
 630 0468 83E0      		ldi r24,lo8(3)
 631 046a 8093 8100 		sts 129,r24
 632               	.LBE187:
 633               	.LBE186:
 634               	.LBB188:
 635               	.LBB189:
 636               	.LM64:
 637 046e 5A98      		cbi 43-32,2
 638               	.LM65:
 639 0470 5C98      		cbi 43-32,4
 640 0472 21E0      		ldi r18,lo8(1)
 641 0474 30E0      		ldi r19,hi8(1)
 642 0476 40E0      		ldi r20,hlo8(1)
 643 0478 50E0      		ldi r21,hhi8(1)
 644               	.LBE189:
 645               	.LBE188:
 646               	.LM66:
 647 047a E0E2      		ldi r30,lo8(32)
 648               	.LBB190:
 649               	.LBB191:
 650               	.LBB192:
 651               	.LBB193:
 652               	.LM67:
 653 047c 68E8      		ldi r22,lo8(5000)
 654 047e 73E1      		ldi r23,hi8(5000)
 655 0480 00C0      		rjmp .L44
 656               	.LVL14:
 657               	.L45:
 658               	.LBE193:
 659               	.LBE192:
 660               	.LBE191:
 661               	.LBE190:
 662               	.LM68:
 663 0482 8BB1      		in r24,43-32
 664               	.LVL15:
 665 0484 8E27      		eor r24,r30
 666 0486 8BB9      		out 43-32,r24
 667               	.LBB197:
 668               	.LBB196:
 669               	.LBB195:
 670               	.LBB194:
 671               	.LM69:
 672 0488 CB01      		movw r24,r22
 673               	.LVL16:
 674               	/* #APP */
 675               	 ;  105 "c:/winavr-20090313/lib/gcc/../../avr/include/util/delay_basic.h" 1
 676 048a 0197      		1: sbiw r24,1
 677 048c 01F4      		brne 1b
 678               	 ;  0 "" 2
 679               	/* #NOAPP */
 680 048e 2F5F      		subi r18,lo8(-(1))
 681 0490 3F4F      		sbci r19,hi8(-(1))
 682 0492 4F4F      		sbci r20,hlo8(-(1))
 683 0494 5F4F      		sbci r21,hhi8(-(1))
 684               	.L44:
 685               	.LBE194:
 686               	.LBE195:
 687               	.LBE196:
 688               	.LBE197:
 689               	.LM70:
 690 0496 2B3F      		cpi r18,lo8(251)
 691 0498 3105      		cpc r19,__zero_reg__
 692 049a 4105      		cpc r20,__zero_reg__
 693 049c 5105      		cpc r21,__zero_reg__
 694 049e 04F0      		brlt .L45
 695 04a0 21E0      		ldi r18,lo8(1)
 696 04a2 30E0      		ldi r19,hi8(1)
 697 04a4 40E0      		ldi r20,hlo8(1)
 698 04a6 50E0      		ldi r21,hhi8(1)
 699               	.LM71:
 700 04a8 A0E2      		ldi r26,lo8(32)
 701               	.LBB198:
 702               	.LBB199:
 703               	.LBB200:
 704               	.LBB201:
 705               	.LM72:
 706 04aa 64EF      		ldi r22,lo8(500)
 707 04ac 71E0      		ldi r23,hi8(500)
 708 04ae 00C0      		rjmp .L46
 709               	.LVL17:
 710               	.L48:
 711               	.LBE201:
 712               	.LBE200:
 713               	.LBE199:
 714               	.LBE198:
 715               	.LM73:
 716 04b0 8BB1      		in r24,43-32
 717               	.LVL18:
 718 04b2 8A27      		eor r24,r26
 719 04b4 8BB9      		out 43-32,r24
 720 04b6 86E9      		ldi r24,lo8(150)
 721 04b8 90E0      		ldi r25,hi8(150)
 722               	.LVL19:
 723               	.L47:
 724               	.LBB205:
 725               	.LBB204:
 726               	.LBB203:
 727               	.LBB202:
 728               	.LM74:
 729 04ba FB01      		movw r30,r22
 730               	/* #APP */
 731               	 ;  105 "c:/winavr-20090313/lib/gcc/../../avr/include/util/delay_basic.h" 1
 732 04bc 3197      		1: sbiw r30,1
 733 04be 01F4      		brne 1b
 734               	 ;  0 "" 2
 735               	/* #NOAPP */
 736               	.LBE202:
 737               	.LBE203:
 738               	.LM75:
 739 04c0 0197      		sbiw r24,1
 740               	.LM76:
 741 04c2 01F4      		brne .L47
 742 04c4 2F5F      		subi r18,lo8(-(1))
 743 04c6 3F4F      		sbci r19,hi8(-(1))
 744 04c8 4F4F      		sbci r20,hlo8(-(1))
 745 04ca 5F4F      		sbci r21,hhi8(-(1))
 746               	.LVL20:
 747               	.L46:
 748               	.LBE204:
 749               	.LBE205:
 750               	.LM77:
 751 04cc 2031      		cpi r18,lo8(16)
 752 04ce 3105      		cpc r19,__zero_reg__
 753 04d0 4105      		cpc r20,__zero_reg__
 754 04d2 5105      		cpc r21,__zero_reg__
 755 04d4 04F0      		brlt .L48
 756 04d6 2093 0000 		sts x,r18
 757 04da 3093 0000 		sts (x)+1,r19
 758 04de 4093 0000 		sts (x)+2,r20
 759 04e2 5093 0000 		sts (x)+3,r21
 760               	.LM78:
 761 04e6 1092 0000 		sts throttle,__zero_reg__
 762 04ea 1092 0000 		sts (throttle)+1,__zero_reg__
 763 04ee 1092 0000 		sts (throttle)+2,__zero_reg__
 764 04f2 1092 0000 		sts (throttle)+3,__zero_reg__
 765               	/* epilogue start */
 766               	.LM79:
 767 04f6 0895      		ret
 768               	.LFE22:
 770               	.global	do_spin_180
 772               	do_spin_180:
 773               	.LFB24:
 774               	.LM80:
 775               	.LVL21:
 776 04f8 2F92      		push r2
 777 04fa 3F92      		push r3
 778 04fc 4F92      		push r4
 779 04fe 5F92      		push r5
 780 0500 6F92      		push r6
 781 0502 7F92      		push r7
 782 0504 8F92      		push r8
 783 0506 9F92      		push r9
 784 0508 AF92      		push r10
 785 050a BF92      		push r11
 786 050c CF92      		push r12
 787 050e DF92      		push r13
 788 0510 EF92      		push r14
 789 0512 FF92      		push r15
 790 0514 0F93      		push r16
 791 0516 1F93      		push r17
 792 0518 DF93      		push r29
 793 051a CF93      		push r28
 794 051c CDB7      		in r28,__SP_L__
 795 051e DEB7      		in r29,__SP_H__
 796 0520 A297      		sbiw r28,34
 797 0522 0FB6      		in __tmp_reg__,__SREG__
 798 0524 F894      		cli
 799 0526 DEBF      		out __SP_H__,r29
 800 0528 0FBE      		out __SREG__,__tmp_reg__
 801 052a CDBF      		out __SP_L__,r28
 802               	/* prologue: function */
 803               	/* frame size = 34 */
 804 052c 5C01      		movw r10,r24
 805               	.LM81:
 806 052e 2091 0000 		lds r18,half_spin_time
 807 0532 3091 0000 		lds r19,(half_spin_time)+1
 808 0536 4091 0000 		lds r20,(half_spin_time)+2
 809 053a 5091 0000 		lds r21,(half_spin_time)+3
 810 053e 2983      		std Y+1,r18
 811 0540 3A83      		std Y+2,r19
 812 0542 4B83      		std Y+3,r20
 813 0544 5C83      		std Y+4,r21
 814               	.LM82:
 815 0546 8091 0000 		lds r24,begin_brake
 816 054a 9091 0000 		lds r25,(begin_brake)+1
 817 054e A091 0000 		lds r26,(begin_brake)+2
 818 0552 B091 0000 		lds r27,(begin_brake)+3
 819               	.LVL22:
 820 0556 8D8F      		std Y+29,r24
 821 0558 9E8F      		std Y+30,r25
 822 055a AF8F      		std Y+31,r26
 823 055c B8A3      		std Y+32,r27
 824               	.LM83:
 825 055e 2091 0000 		lds r18,end_brake
 826 0562 3091 0000 		lds r19,(end_brake)+1
 827 0566 4091 0000 		lds r20,(end_brake)+2
 828 056a 5091 0000 		lds r21,(end_brake)+3
 829 056e 298F      		std Y+25,r18
 830 0570 3A8F      		std Y+26,r19
 831 0572 4B8F      		std Y+27,r20
 832 0574 5C8F      		std Y+28,r21
 833               	.LM84:
 834 0576 8091 0000 		lds r24,led_hold_over
 835 057a 9091 0000 		lds r25,(led_hold_over)+1
 836 057e A091 0000 		lds r26,(led_hold_over)+2
 837 0582 B091 0000 		lds r27,(led_hold_over)+3
 838 0586 8D8B      		std Y+21,r24
 839 0588 9E8B      		std Y+22,r25
 840 058a AF8B      		std Y+23,r26
 841 058c B88F      		std Y+24,r27
 842               	.LM85:
 843 058e A091 0000 		lds r26,forward
 844 0592 B091 0000 		lds r27,(forward)+1
 845 0596 BC8B      		std Y+20,r27
 846 0598 AB8B      		std Y+19,r26
 847 059a E091 0000 		lds r30,backward
 848 059e F091 0000 		lds r31,(backward)+1
 849 05a2 FA8B      		std Y+18,r31
 850 05a4 E98B      		std Y+17,r30
 851               	.LM86:
 852 05a6 2091 0000 		lds r18,alternate_motor_cycle
 853 05aa 3091 0000 		lds r19,(alternate_motor_cycle)+1
 854 05ae 388B      		std Y+16,r19
 855 05b0 2F87      		std Y+15,r18
 856               	.LM87:
 857 05b2 8091 0000 		lds r24,power_kill_part1
 858 05b6 9091 0000 		lds r25,(power_kill_part1)+1
 859 05ba A091 0000 		lds r26,(power_kill_part1)+2
 860 05be B091 0000 		lds r27,(power_kill_part1)+3
 861 05c2 8B87      		std Y+11,r24
 862 05c4 9C87      		std Y+12,r25
 863 05c6 AD87      		std Y+13,r26
 864 05c8 BE87      		std Y+14,r27
 865               	.LM88:
 866 05ca 2091 0000 		lds r18,power_kill_part2
 867 05ce 3091 0000 		lds r19,(power_kill_part2)+1
 868 05d2 4091 0000 		lds r20,(power_kill_part2)+2
 869 05d6 5091 0000 		lds r21,(power_kill_part2)+3
 870 05da 2F83      		std Y+7,r18
 871 05dc 3887      		std Y+8,r19
 872 05de 4987      		std Y+9,r20
 873 05e0 5A87      		std Y+10,r21
 874               	.LM89:
 875 05e2 2090 0000 		lds r2,led_on
 876 05e6 3090 0000 		lds r3,(led_on)+1
 877 05ea 4090 0000 		lds r4,(led_on)+2
 878 05ee 5090 0000 		lds r5,(led_on)+3
 879 05f2 6090 0000 		lds r6,led_off
 880 05f6 7090 0000 		lds r7,(led_off)+1
 881 05fa 8090 0000 		lds r8,(led_off)+2
 882 05fe 9090 0000 		lds r9,(led_off)+3
 883               	.LM90:
 884 0602 4091 0000 		lds r20,flashy_led
 885 0606 5091 0000 		lds r21,(flashy_led)+1
 886 060a 5E83      		std Y+6,r21
 887 060c 4D83      		std Y+5,r20
 888 060e C090 0000 		lds r12,led_ref
 889 0612 D090 0000 		lds r13,(led_ref)+1
 890 0616 E090 0000 		lds r14,(led_ref)+2
 891 061a F090 0000 		lds r15,(led_ref)+3
 892 061e 8091 0000 		lds r24,led_is_on_now
 893 0622 9091 0000 		lds r25,(led_is_on_now)+1
 894 0626 9AA3      		std Y+34,r25
 895 0628 89A3      		std Y+33,r24
 896               	.LM91:
 897 062a 01E0      		ldi r16,lo8(1)
 898 062c 00C0      		rjmp .L101
 899               	.L86:
 900               	.LM92:
 901 062e 6091 8400 		lds r22,132
 902 0632 7091 8500 		lds r23,(132)+1
 903 0636 80E0      		ldi r24,lo8(0)
 904 0638 90E0      		ldi r25,hi8(0)
 905 063a 0E94 0000 		call __floatunsisf
 906 063e 2D8D      		ldd r18,Y+29
 907 0640 3E8D      		ldd r19,Y+30
 908 0642 4F8D      		ldd r20,Y+31
 909 0644 58A1      		ldd r21,Y+32
 910 0646 0E94 0000 		call __ltsf2
 911 064a 8823      		tst r24
 912 064c 04F4      		brge .L53
 913               	.LBB206:
 914               	.LBB207:
 915               	.LM93:
 916 064e 5A9A      		sbi 43-32,2
 917               	.LM94:
 918 0650 5C9A      		sbi 43-32,4
 919               	.L53:
 920               	.LBE207:
 921               	.LBE206:
 922               	.LM95:
 923 0652 6091 8400 		lds r22,132
 924 0656 7091 8500 		lds r23,(132)+1
 925 065a 80E0      		ldi r24,lo8(0)
 926 065c 90E0      		ldi r25,hi8(0)
 927 065e 0E94 0000 		call __floatunsisf
 928 0662 298D      		ldd r18,Y+25
 929 0664 3A8D      		ldd r19,Y+26
 930 0666 4B8D      		ldd r20,Y+27
 931 0668 5C8D      		ldd r21,Y+28
 932 066a 0E94 0000 		call __gtsf2
 933 066e 1816      		cp __zero_reg__,r24
 934 0670 04F4      		brge .L55
 935               	.LBB208:
 936               	.LBB209:
 937               	.LM96:
 938 0672 5A9A      		sbi 43-32,2
 939               	.LM97:
 940 0674 5C9A      		sbi 43-32,4
 941               	.L55:
 942               	.LBE209:
 943               	.LBE208:
 944               	.LM98:
 945 0676 6091 8400 		lds r22,132
 946 067a 7091 8500 		lds r23,(132)+1
 947 067e 80E0      		ldi r24,lo8(0)
 948 0680 90E0      		ldi r25,hi8(0)
 949 0682 2D89      		ldd r18,Y+21
 950 0684 3E89      		ldd r19,Y+22
 951 0686 4F89      		ldd r20,Y+23
 952 0688 588D      		ldd r21,Y+24
 953 068a 620F      		add r22,r18
 954 068c 731F      		adc r23,r19
 955 068e 841F      		adc r24,r20
 956 0690 951F      		adc r25,r21
 957 0692 0E94 0000 		call __floatsisf
 958 0696 6B01      		movw r12,r22
 959 0698 7C01      		movw r14,r24
 960               	.LM99:
 961 069a 6091 8400 		lds r22,132
 962 069e 7091 8500 		lds r23,(132)+1
 963 06a2 80E0      		ldi r24,lo8(0)
 964 06a4 90E0      		ldi r25,hi8(0)
 965 06a6 0E94 0000 		call __floatunsisf
 966 06aa 2D8D      		ldd r18,Y+29
 967 06ac 3E8D      		ldd r19,Y+30
 968 06ae 4F8D      		ldd r20,Y+31
 969 06b0 58A1      		ldd r21,Y+32
 970 06b2 0E94 0000 		call __gtsf2
 971 06b6 1816      		cp __zero_reg__,r24
 972 06b8 04F0      		brlt .+2
 973 06ba 00C0      		rjmp .L57
 974 06bc 6091 8400 		lds r22,132
 975 06c0 7091 8500 		lds r23,(132)+1
 976 06c4 80E0      		ldi r24,lo8(0)
 977 06c6 90E0      		ldi r25,hi8(0)
 978 06c8 0E94 0000 		call __floatunsisf
 979 06cc 298D      		ldd r18,Y+25
 980 06ce 3A8D      		ldd r19,Y+26
 981 06d0 4B8D      		ldd r20,Y+27
 982 06d2 5C8D      		ldd r21,Y+28
 983 06d4 0E94 0000 		call __ltsf2
 984 06d8 8823      		tst r24
 985 06da 04F0      		brlt .+2
 986 06dc 00C0      		rjmp .L57
 987               	.LM100:
 988 06de 4B89      		ldd r20,Y+19
 989 06e0 5C89      		ldd r21,Y+20
 990 06e2 452B      		or r20,r21
 991 06e4 01F4      		brne .L60
 992 06e6 8989      		ldd r24,Y+17
 993 06e8 9A89      		ldd r25,Y+18
 994 06ea 892B      		or r24,r25
 995 06ec 01F4      		brne .L61
 996               	.LM101:
 997 06ee AF85      		ldd r26,Y+15
 998 06f0 B889      		ldd r27,Y+16
 999 06f2 AB2B      		or r26,r27
 1000 06f4 01F4      		brne .L62
 1001               	.LM102:
 1002 06f6 B1E0      		ldi r27,lo8(1)
 1003 06f8 AB16      		cp r10,r27
 1004 06fa B104      		cpc r11,__zero_reg__
 1005 06fc 01F0      		breq .L102
 1006               	.L63:
 1007               	.LM103:
 1008 06fe E2E0      		ldi r30,lo8(2)
 1009 0700 AE16      		cp r10,r30
 1010 0702 B104      		cpc r11,__zero_reg__
 1011 0704 01F4      		brne .L61
 1012 0706 00C0      		rjmp .L103
 1013               	.L62:
 1014               	.LM104:
 1015 0708 2F85      		ldd r18,Y+15
 1016 070a 3889      		ldd r19,Y+16
 1017 070c 2130      		cpi r18,1
 1018 070e 3105      		cpc r19,__zero_reg__
 1019 0710 01F4      		brne .L61
 1020               	.LM105:
 1021 0712 31E0      		ldi r19,lo8(1)
 1022 0714 A316      		cp r10,r19
 1023 0716 B104      		cpc r11,__zero_reg__
 1024 0718 01F0      		breq .L103
 1025               	.L64:
 1026               	.LM106:
 1027 071a 42E0      		ldi r20,lo8(2)
 1028 071c A416      		cp r10,r20
 1029 071e B104      		cpc r11,__zero_reg__
 1030 0720 01F4      		brne .L61
 1031 0722 00C0      		rjmp .L102
 1032               	.L60:
 1033               	.LM107:
 1034 0724 8B89      		ldd r24,Y+19
 1035 0726 9C89      		ldd r25,Y+20
 1036 0728 0197      		sbiw r24,1
 1037 072a 01F4      		brne .L61
 1038               	.LM108:
 1039 072c 91E0      		ldi r25,lo8(1)
 1040 072e A916      		cp r10,r25
 1041 0730 B104      		cpc r11,__zero_reg__
 1042 0732 01F4      		brne .L65
 1043               	.L102:
 1044               	.LBB210:
 1045               	.LBB211:
 1046               	.LM109:
 1047 0734 5A9A      		sbi 43-32,2
 1048               	.LM110:
 1049 0736 5C98      		cbi 43-32,4
 1050 0738 00C0      		rjmp .L61
 1051               	.L65:
 1052               	.LBE211:
 1053               	.LBE210:
 1054               	.LM111:
 1055 073a A2E0      		ldi r26,lo8(2)
 1056 073c AA16      		cp r10,r26
 1057 073e B104      		cpc r11,__zero_reg__
 1058 0740 01F4      		brne .L61
 1059               	.L103:
 1060               	.LBB212:
 1061               	.LBB213:
 1062               	.LM112:
 1063 0742 5A98      		cbi 43-32,2
 1064               	.LM113:
 1065 0744 5C9A      		sbi 43-32,4
 1066               	.L61:
 1067               	.LBE213:
 1068               	.LBE212:
 1069               	.LM114:
 1070 0746 E989      		ldd r30,Y+17
 1071 0748 FA89      		ldd r31,Y+18
 1072 074a 3197      		sbiw r30,1
 1073 074c 01F4      		brne .L57
 1074               	.LM115:
 1075 074e F1E0      		ldi r31,lo8(1)
 1076 0750 AF16      		cp r10,r31
 1077 0752 B104      		cpc r11,__zero_reg__
 1078 0754 01F4      		brne .L66
 1079               	.LBB214:
 1080               	.LBB215:
 1081               	.LM116:
 1082 0756 5A98      		cbi 43-32,2
 1083               	.LM117:
 1084 0758 5C9A      		sbi 43-32,4
 1085 075a 00C0      		rjmp .L57
 1086               	.L66:
 1087               	.LBE215:
 1088               	.LBE214:
 1089               	.LM118:
 1090 075c 22E0      		ldi r18,lo8(2)
 1091 075e A216      		cp r10,r18
 1092 0760 B104      		cpc r11,__zero_reg__
 1093 0762 01F4      		brne .L57
 1094               	.LBB216:
 1095               	.LBB217:
 1096               	.LM119:
 1097 0764 5A9A      		sbi 43-32,2
 1098               	.LM120:
 1099 0766 5C98      		cbi 43-32,4
 1100               	.L57:
 1101               	.LBE217:
 1102               	.LBE216:
 1103               	.LM121:
 1104 0768 6091 8400 		lds r22,132
 1105 076c 7091 8500 		lds r23,(132)+1
 1106 0770 80E0      		ldi r24,lo8(0)
 1107 0772 90E0      		ldi r25,hi8(0)
 1108 0774 0E94 0000 		call __floatunsisf
 1109 0778 298D      		ldd r18,Y+25
 1110 077a 3A8D      		ldd r19,Y+26
 1111 077c 4B8D      		ldd r20,Y+27
 1112 077e 5C8D      		ldd r21,Y+28
 1113 0780 0E94 0000 		call __gtsf2
 1114 0784 1816      		cp __zero_reg__,r24
 1115 0786 04F4      		brge .L67
 1116               	.LBB218:
 1117               	.LBB219:
 1118               	.LM122:
 1119 0788 5A9A      		sbi 43-32,2
 1120               	.LM123:
 1121 078a 5C9A      		sbi 43-32,4
 1122               	.L67:
 1123               	.LBE219:
 1124               	.LBE218:
 1125               	.LM124:
 1126 078c 6091 8400 		lds r22,132
 1127 0790 7091 8500 		lds r23,(132)+1
 1128 0794 80E0      		ldi r24,lo8(0)
 1129 0796 90E0      		ldi r25,hi8(0)
 1130 0798 0E94 0000 		call __floatunsisf
 1131 079c 2B85      		ldd r18,Y+11
 1132 079e 3C85      		ldd r19,Y+12
 1133 07a0 4D85      		ldd r20,Y+13
 1134 07a2 5E85      		ldd r21,Y+14
 1135 07a4 0E94 0000 		call __ltsf2
 1136 07a8 8823      		tst r24
 1137 07aa 04F4      		brge .L69
 1138               	.LBB220:
 1139               	.LBB221:
 1140               	.LM125:
 1141 07ac 5A98      		cbi 43-32,2
 1142               	.LM126:
 1143 07ae 5C98      		cbi 43-32,4
 1144               	.L69:
 1145               	.LBE221:
 1146               	.LBE220:
 1147               	.LM127:
 1148 07b0 6091 8400 		lds r22,132
 1149 07b4 7091 8500 		lds r23,(132)+1
 1150 07b8 80E0      		ldi r24,lo8(0)
 1151 07ba 90E0      		ldi r25,hi8(0)
 1152 07bc 0E94 0000 		call __floatunsisf
 1153 07c0 2F81      		ldd r18,Y+7
 1154 07c2 3885      		ldd r19,Y+8
 1155 07c4 4985      		ldd r20,Y+9
 1156 07c6 5A85      		ldd r21,Y+10
 1157 07c8 0E94 0000 		call __gtsf2
 1158 07cc 1816      		cp __zero_reg__,r24
 1159 07ce 04F4      		brge .L71
 1160               	.LBB222:
 1161               	.LBB223:
 1162               	.LM128:
 1163 07d0 5A98      		cbi 43-32,2
 1164               	.LM129:
 1165 07d2 5C98      		cbi 43-32,4
 1166               	.L71:
 1167               	.LBE223:
 1168               	.LBE222:
 1169               	.LM130:
 1170 07d4 C201      		movw r24,r4
 1171 07d6 B101      		movw r22,r2
 1172 07d8 A401      		movw r20,r8
 1173 07da 9301      		movw r18,r6
 1174 07dc 0E94 0000 		call __gtsf2
 1175 07e0 1816      		cp __zero_reg__,r24
 1176 07e2 04F4      		brge .L73
 1177 07e4 10E0      		ldi r17,lo8(0)
 1178 07e6 C701      		movw r24,r14
 1179 07e8 B601      		movw r22,r12
 1180 07ea A401      		movw r20,r8
 1181 07ec 9301      		movw r18,r6
 1182 07ee 0E94 0000 		call __gtsf2
 1183 07f2 1816      		cp __zero_reg__,r24
 1184 07f4 04F4      		brge .L75
 1185 07f6 11E0      		ldi r17,lo8(1)
 1186               	.L75:
 1187 07f8 1027      		eor r17,r16
 1188 07fa 412F      		mov r20,r17
 1189 07fc 50E0      		ldi r21,lo8(0)
 1190 07fe 5AA3      		std Y+34,r21
 1191 0800 49A3      		std Y+33,r20
 1192               	.LM131:
 1193 0802 C701      		movw r24,r14
 1194 0804 B601      		movw r22,r12
 1195 0806 A201      		movw r20,r4
 1196 0808 9101      		movw r18,r2
 1197 080a 0E94 0000 		call __gtsf2
 1198 080e 1816      		cp __zero_reg__,r24
 1199 0810 04F4      		brge .L73
 1200 0812 81E0      		ldi r24,lo8(1)
 1201 0814 90E0      		ldi r25,hi8(1)
 1202 0816 9AA3      		std Y+34,r25
 1203 0818 89A3      		std Y+33,r24
 1204               	.L73:
 1205               	.LM132:
 1206 081a C401      		movw r24,r8
 1207 081c B301      		movw r22,r6
 1208 081e A201      		movw r20,r4
 1209 0820 9101      		movw r18,r2
 1210 0822 0E94 0000 		call __gtsf2
 1211 0826 1816      		cp __zero_reg__,r24
 1212 0828 04F4      		brge .L78
 1213 082a 1AA2      		std Y+34,__zero_reg__
 1214 082c 19A2      		std Y+33,__zero_reg__
 1215 082e C701      		movw r24,r14
 1216 0830 B601      		movw r22,r12
 1217 0832 A201      		movw r20,r4
 1218 0834 9101      		movw r18,r2
 1219 0836 0E94 0000 		call __gtsf2
 1220 083a 1816      		cp __zero_reg__,r24
 1221 083c 04F4      		brge .L80
 1222 083e A1E0      		ldi r26,lo8(1)
 1223 0840 B0E0      		ldi r27,hi8(1)
 1224 0842 BAA3      		std Y+34,r27
 1225 0844 A9A3      		std Y+33,r26
 1226               	.L80:
 1227               	.LM133:
 1228 0846 C701      		movw r24,r14
 1229 0848 B601      		movw r22,r12
 1230 084a A401      		movw r20,r8
 1231 084c 9301      		movw r18,r6
 1232 084e 0E94 0000 		call __gtsf2
 1233 0852 1816      		cp __zero_reg__,r24
 1234 0854 04F4      		brge .L78
 1235 0856 1AA2      		std Y+34,__zero_reg__
 1236 0858 19A2      		std Y+33,__zero_reg__
 1237               	.L78:
 1238               	.LM134:
 1239 085a 29A1      		ldd r18,Y+33
 1240 085c 3AA1      		ldd r19,Y+34
 1241 085e 2130      		cpi r18,1
 1242 0860 3105      		cpc r19,__zero_reg__
 1243 0862 01F4      		brne .L83
 1244               	.LM135:
 1245 0864 4D81      		ldd r20,Y+5
 1246 0866 5E81      		ldd r21,Y+6
 1247 0868 4130      		cpi r20,1
 1248 086a 5105      		cpc r21,__zero_reg__
 1249 086c 01F4      		brne .L84
 1250               	.LM136:
 1251 086e 8091 8400 		lds r24,132
 1252 0872 9091 8500 		lds r25,(132)+1
 1253 0876 60EA      		ldi r22,lo8(160)
 1254 0878 70E0      		ldi r23,hi8(160)
 1255 087a 0E94 0000 		call __udivmodhi4
 1256 087e 60FD      		sbrc r22,0
 1257 0880 00C0      		rjmp .L104
 1258               	.L84:
 1259               	.LM137:
 1260 0882 5D9A      		sbi 43-32,5
 1261 0884 00C0      		rjmp .L101
 1262               	.L83:
 1263               	.LM138:
 1264 0886 89A1      		ldd r24,Y+33
 1265 0888 9AA1      		ldd r25,Y+34
 1266 088a 892B      		or r24,r25
 1267 088c 01F4      		brne .L101
 1268               	.L104:
 1269               	.LM139:
 1270 088e 5D98      		cbi 43-32,5
 1271               	.L101:
 1272               	.LM140:
 1273 0890 6091 8400 		lds r22,132
 1274 0894 7091 8500 		lds r23,(132)+1
 1275 0898 80E0      		ldi r24,lo8(0)
 1276 089a 90E0      		ldi r25,hi8(0)
 1277 089c 0E94 0000 		call __floatunsisf
 1278 08a0 2981      		ldd r18,Y+1
 1279 08a2 3A81      		ldd r19,Y+2
 1280 08a4 4B81      		ldd r20,Y+3
 1281 08a6 5C81      		ldd r21,Y+4
 1282 08a8 0E94 0000 		call __ltsf2
 1283 08ac 87FD      		sbrc r24,7
 1284 08ae 00C0      		rjmp .L86
 1285 08b0 C092 0000 		sts led_ref,r12
 1286 08b4 D092 0000 		sts (led_ref)+1,r13
 1287 08b8 E092 0000 		sts (led_ref)+2,r14
 1288 08bc F092 0000 		sts (led_ref)+3,r15
 1289 08c0 A9A1      		ldd r26,Y+33
 1290 08c2 BAA1      		ldd r27,Y+34
 1291 08c4 B093 0000 		sts (led_is_on_now)+1,r27
 1292 08c8 A093 0000 		sts led_is_on_now,r26
 1293               	/* epilogue start */
 1294               	.LM141:
 1295 08cc A296      		adiw r28,34
 1296 08ce 0FB6      		in __tmp_reg__,__SREG__
 1297 08d0 F894      		cli
 1298 08d2 DEBF      		out __SP_H__,r29
 1299 08d4 0FBE      		out __SREG__,__tmp_reg__
 1300 08d6 CDBF      		out __SP_L__,r28
 1301 08d8 CF91      		pop r28
 1302 08da DF91      		pop r29
 1303 08dc 1F91      		pop r17
 1304 08de 0F91      		pop r16
 1305 08e0 FF90      		pop r15
 1306 08e2 EF90      		pop r14
 1307 08e4 DF90      		pop r13
 1308 08e6 CF90      		pop r12
 1309 08e8 BF90      		pop r11
 1310 08ea AF90      		pop r10
 1311               	.LVL23:
 1312 08ec 9F90      		pop r9
 1313 08ee 8F90      		pop r8
 1314 08f0 7F90      		pop r7
 1315 08f2 6F90      		pop r6
 1316 08f4 5F90      		pop r5
 1317 08f6 4F90      		pop r4
 1318 08f8 3F90      		pop r3
 1319 08fa 2F90      		pop r2
 1320 08fc 0895      		ret
 1321               	.LFE24:
 1323               	.global	motors_off
 1325               	motors_off:
 1326               	.LFB25:
 1327               	.LM142:
 1328               	/* prologue: function */
 1329               	/* frame size = 0 */
 1330               	.LM143:
 1331 08fe 5A98      		cbi 43-32,2
 1332               	.LM144:
 1333 0900 5C98      		cbi 43-32,4
 1334               	/* epilogue start */
 1335               	.LM145:
 1336 0902 0895      		ret
 1337               	.LFE25:
 1339               	.global	motors_left
 1341               	motors_left:
 1342               	.LFB26:
 1343               	.LM146:
 1344               	/* prologue: function */
 1345               	/* frame size = 0 */
 1346               	.LM147:
 1347 0904 5A9A      		sbi 43-32,2
 1348               	.LM148:
 1349 0906 5C9A      		sbi 43-32,4
 1350               	/* epilogue start */
 1351               	.LM149:
 1352 0908 0895      		ret
 1353               	.LFE26:
 1355               	.global	motor1_on
 1357               	motor1_on:
 1358               	.LFB27:
 1359               	.LM150:
 1360               	/* prologue: function */
 1361               	/* frame size = 0 */
 1362               	.LM151:
 1363 090a 5A9A      		sbi 43-32,2
 1364               	.LM152:
 1365 090c 5C98      		cbi 43-32,4
 1366               	/* epilogue start */
 1367               	.LM153:
 1368 090e 0895      		ret
 1369               	.LFE27:
 1371               	.global	motor2_on
 1373               	motor2_on:
 1374               	.LFB28:
 1375               	.LM154:
 1376               	/* prologue: function */
 1377               	/* frame size = 0 */
 1378               	.LM155:
 1379 0910 5A98      		cbi 43-32,2
 1380               	.LM156:
 1381 0912 5C9A      		sbi 43-32,4
 1382               	/* epilogue start */
 1383               	.LM157:
 1384 0914 0895      		ret
 1385               	.LFE28:
 1387               	.global	reset_rc
 1389               	reset_rc:
 1390               	.LFB30:
 1391               	.LM158:
 1392               	/* prologue: function */
 1393               	/* frame size = 0 */
 1394               	.LM159:
 1395 0916 1092 0000 		sts throttle_hightime,__zero_reg__
 1396 091a 1092 0000 		sts (throttle_hightime)+1,__zero_reg__
 1397 091e 1092 0000 		sts (throttle_hightime)+2,__zero_reg__
 1398 0922 1092 0000 		sts (throttle_hightime)+3,__zero_reg__
 1399               	.LM160:
 1400 0926 1092 0000 		sts leftright_hightime,__zero_reg__
 1401 092a 1092 0000 		sts (leftright_hightime)+1,__zero_reg__
 1402 092e 1092 0000 		sts (leftright_hightime)+2,__zero_reg__
 1403 0932 1092 0000 		sts (leftright_hightime)+3,__zero_reg__
 1404               	.LM161:
 1405 0936 1092 0000 		sts forwardback_hightime,__zero_reg__
 1406 093a 1092 0000 		sts (forwardback_hightime)+1,__zero_reg__
 1407 093e 1092 0000 		sts (forwardback_hightime)+2,__zero_reg__
 1408 0942 1092 0000 		sts (forwardback_hightime)+3,__zero_reg__
 1409               	/* epilogue start */
 1410               	.LM162:
 1411 0946 0895      		ret
 1412               	.LFE30:
 1414               	.global	throttle_change
 1416               	throttle_change:
 1417               	.LFB31:
 1418               	.LM163:
 1419 0948 EF92      		push r14
 1420 094a FF92      		push r15
 1421 094c 0F93      		push r16
 1422 094e 1F93      		push r17
 1423               	/* prologue: function */
 1424               	/* frame size = 0 */
 1425               	.LM164:
 1426 0950 189B      		sbis 35-32,0
 1427 0952 00C0      		rjmp .L116
 1428 0954 8091 8400 		lds r24,132
 1429 0958 9091 8500 		lds r25,(132)+1
 1430 095c A0E0      		ldi r26,lo8(0)
 1431 095e B0E0      		ldi r27,hi8(0)
 1432 0960 8093 0000 		sts throttle_hightime,r24
 1433 0964 9093 0000 		sts (throttle_hightime)+1,r25
 1434 0968 A093 0000 		sts (throttle_hightime)+2,r26
 1435 096c B093 0000 		sts (throttle_hightime)+3,r27
 1436               	.L116:
 1437               	.LM165:
 1438 0970 1899      		sbic 35-32,0
 1439 0972 00C0      		rjmp .L117
 1440 0974 E090 0000 		lds r14,throttle_hightime
 1441 0978 F090 0000 		lds r15,(throttle_hightime)+1
 1442 097c 0091 0000 		lds r16,(throttle_hightime)+2
 1443 0980 1091 0000 		lds r17,(throttle_hightime)+3
 1444 0984 E114      		cp r14,__zero_reg__
 1445 0986 F104      		cpc r15,__zero_reg__
 1446 0988 0105      		cpc r16,__zero_reg__
 1447 098a 1105      		cpc r17,__zero_reg__
 1448 098c 01F4      		brne .+2
 1449 098e 00C0      		rjmp .L117
 1450 0990 8091 8400 		lds r24,132
 1451 0994 9091 8500 		lds r25,(132)+1
 1452 0998 A0E0      		ldi r26,lo8(0)
 1453 099a B0E0      		ldi r27,hi8(0)
 1454 099c E816      		cp r14,r24
 1455 099e F906      		cpc r15,r25
 1456 09a0 0A07      		cpc r16,r26
 1457 09a2 1B07      		cpc r17,r27
 1458 09a4 04F0      		brlt .+2
 1459 09a6 00C0      		rjmp .L117
 1460               	.LM166:
 1461 09a8 6091 0000 		lds r22,throttle
 1462 09ac 7091 0000 		lds r23,(throttle)+1
 1463 09b0 8091 0000 		lds r24,(throttle)+2
 1464 09b4 9091 0000 		lds r25,(throttle)+3
 1465 09b8 2091 8400 		lds r18,132
 1466 09bc 3091 8500 		lds r19,(132)+1
 1467 09c0 40E0      		ldi r20,lo8(0)
 1468 09c2 50E0      		ldi r21,hi8(0)
 1469 09c4 2E19      		sub r18,r14
 1470 09c6 3F09      		sbc r19,r15
 1471 09c8 400B      		sbc r20,r16
 1472 09ca 510B      		sbc r21,r17
 1473 09cc 7901      		movw r14,r18
 1474 09ce 8A01      		movw r16,r20
 1475 09d0 E4E0      		ldi r30,4
 1476 09d2 EE0C      	1:	lsl r14
 1477 09d4 FF1C      		rol r15
 1478 09d6 001F      		rol r16
 1479 09d8 111F      		rol r17
 1480 09da EA95      		dec r30
 1481 09dc 01F4      		brne 1b
 1482 09de E21A      		sub r14,r18
 1483 09e0 F30A      		sbc r15,r19
 1484 09e2 040B      		sbc r16,r20
 1485 09e4 150B      		sbc r17,r21
 1486 09e6 25E5      		ldi r18,lo8(85)
 1487 09e8 30E0      		ldi r19,hi8(85)
 1488 09ea 40E0      		ldi r20,hlo8(85)
 1489 09ec 50E0      		ldi r21,hhi8(85)
 1490 09ee 0E94 0000 		call __mulsi3
 1491 09f2 E60E      		add r14,r22
 1492 09f4 F71E      		adc r15,r23
 1493 09f6 081F      		adc r16,r24
 1494 09f8 191F      		adc r17,r25
 1495 09fa C801      		movw r24,r16
 1496 09fc B701      		movw r22,r14
 1497 09fe 24E6      		ldi r18,lo8(100)
 1498 0a00 30E0      		ldi r19,hi8(100)
 1499 0a02 40E0      		ldi r20,hlo8(100)
 1500 0a04 50E0      		ldi r21,hhi8(100)
 1501 0a06 0E94 0000 		call __divmodsi4
 1502 0a0a C901      		movw r24,r18
 1503 0a0c DA01      		movw r26,r20
 1504 0a0e 8093 0000 		sts throttle,r24
 1505 0a12 9093 0000 		sts (throttle)+1,r25
 1506 0a16 A093 0000 		sts (throttle)+2,r26
 1507 0a1a B093 0000 		sts (throttle)+3,r27
 1508               	.LM167:
 1509 0a1e 1092 0000 		sts (rotations_since_throttle_was_set)+1,__zero_reg__
 1510 0a22 1092 0000 		sts rotations_since_throttle_was_set,__zero_reg__
 1511               	.L117:
 1512               	.LM168:
 1513 0a26 83B1      		in r24,35-32
 1514 0a28 90E0      		ldi r25,lo8(0)
 1515 0a2a 8170      		andi r24,lo8(1)
 1516 0a2c 9070      		andi r25,hi8(1)
 1517 0a2e 9093 0000 		sts (throttle_hilow)+1,r25
 1518 0a32 8093 0000 		sts throttle_hilow,r24
 1519               	/* epilogue start */
 1520               	.LM169:
 1521 0a36 1F91      		pop r17
 1522 0a38 0F91      		pop r16
 1523 0a3a FF90      		pop r15
 1524 0a3c EF90      		pop r14
 1525 0a3e 0895      		ret
 1526               	.LFE31:
 1528               	.global	leftright_change
 1530               	leftright_change:
 1531               	.LFB32:
 1532               	.LM170:
 1533 0a40 EF92      		push r14
 1534 0a42 FF92      		push r15
 1535 0a44 0F93      		push r16
 1536 0a46 1F93      		push r17
 1537               	/* prologue: function */
 1538               	/* frame size = 0 */
 1539               	.LM171:
 1540 0a48 199B      		sbis 35-32,1
 1541 0a4a 00C0      		rjmp .L120
 1542 0a4c 8091 8400 		lds r24,132
 1543 0a50 9091 8500 		lds r25,(132)+1
 1544 0a54 A0E0      		ldi r26,lo8(0)
 1545 0a56 B0E0      		ldi r27,hi8(0)
 1546 0a58 8093 0000 		sts leftright_hightime,r24
 1547 0a5c 9093 0000 		sts (leftright_hightime)+1,r25
 1548 0a60 A093 0000 		sts (leftright_hightime)+2,r26
 1549 0a64 B093 0000 		sts (leftright_hightime)+3,r27
 1550               	.L120:
 1551               	.LM172:
 1552 0a68 1999      		sbic 35-32,1
 1553 0a6a 00C0      		rjmp .L121
 1554 0a6c E090 0000 		lds r14,leftright_hightime
 1555 0a70 F090 0000 		lds r15,(leftright_hightime)+1
 1556 0a74 0091 0000 		lds r16,(leftright_hightime)+2
 1557 0a78 1091 0000 		lds r17,(leftright_hightime)+3
 1558 0a7c E114      		cp r14,__zero_reg__
 1559 0a7e F104      		cpc r15,__zero_reg__
 1560 0a80 0105      		cpc r16,__zero_reg__
 1561 0a82 1105      		cpc r17,__zero_reg__
 1562 0a84 01F0      		breq .L121
 1563 0a86 8091 8400 		lds r24,132
 1564 0a8a 9091 8500 		lds r25,(132)+1
 1565 0a8e A0E0      		ldi r26,lo8(0)
 1566 0a90 B0E0      		ldi r27,hi8(0)
 1567 0a92 E816      		cp r14,r24
 1568 0a94 F906      		cpc r15,r25
 1569 0a96 0A07      		cpc r16,r26
 1570 0a98 1B07      		cpc r17,r27
 1571 0a9a 04F4      		brge .L121
 1572               	.LM173:
 1573 0a9c 2091 0000 		lds r18,leftright
 1574 0aa0 3091 0000 		lds r19,(leftright)+1
 1575 0aa4 4091 0000 		lds r20,(leftright)+2
 1576 0aa8 5091 0000 		lds r21,(leftright)+3
 1577 0aac 6091 8400 		lds r22,132
 1578 0ab0 7091 8500 		lds r23,(132)+1
 1579 0ab4 80E0      		ldi r24,lo8(0)
 1580 0ab6 90E0      		ldi r25,hi8(0)
 1581 0ab8 6E19      		sub r22,r14
 1582 0aba 7F09      		sbc r23,r15
 1583 0abc 800B      		sbc r24,r16
 1584 0abe 910B      		sbc r25,r17
 1585 0ac0 620F      		add r22,r18
 1586 0ac2 731F      		adc r23,r19
 1587 0ac4 841F      		adc r24,r20
 1588 0ac6 951F      		adc r25,r21
 1589 0ac8 22E0      		ldi r18,lo8(2)
 1590 0aca 30E0      		ldi r19,hi8(2)
 1591 0acc 40E0      		ldi r20,hlo8(2)
 1592 0ace 50E0      		ldi r21,hhi8(2)
 1593 0ad0 0E94 0000 		call __divmodsi4
 1594 0ad4 C901      		movw r24,r18
 1595 0ad6 DA01      		movw r26,r20
 1596 0ad8 8093 0000 		sts leftright,r24
 1597 0adc 9093 0000 		sts (leftright)+1,r25
 1598 0ae0 A093 0000 		sts (leftright)+2,r26
 1599 0ae4 B093 0000 		sts (leftright)+3,r27
 1600               	.L121:
 1601               	.LM174:
 1602 0ae8 83B1      		in r24,35-32
 1603 0aea 90E0      		ldi r25,lo8(0)
 1604 0aec 8270      		andi r24,lo8(2)
 1605 0aee 9070      		andi r25,hi8(2)
 1606 0af0 9093 0000 		sts (leftright_hilow)+1,r25
 1607 0af4 8093 0000 		sts leftright_hilow,r24
 1608               	/* epilogue start */
 1609               	.LM175:
 1610 0af8 1F91      		pop r17
 1611 0afa 0F91      		pop r16
 1612 0afc FF90      		pop r15
 1613 0afe EF90      		pop r14
 1614 0b00 0895      		ret
 1615               	.LFE32:
 1617               	.global	forwardback_change
 1619               	forwardback_change:
 1620               	.LFB33:
 1621               	.LM176:
 1622               	/* prologue: function */
 1623               	/* frame size = 0 */
 1624               	.LM177:
 1625 0b02 1A9B      		sbis 35-32,2
 1626 0b04 00C0      		rjmp .L124
 1627 0b06 8091 8400 		lds r24,132
 1628 0b0a 9091 8500 		lds r25,(132)+1
 1629 0b0e A0E0      		ldi r26,lo8(0)
 1630 0b10 B0E0      		ldi r27,hi8(0)
 1631 0b12 8093 0000 		sts forwardback_hightime,r24
 1632 0b16 9093 0000 		sts (forwardback_hightime)+1,r25
 1633 0b1a A093 0000 		sts (forwardback_hightime)+2,r26
 1634 0b1e B093 0000 		sts (forwardback_hightime)+3,r27
 1635               	.L124:
 1636               	.LM178:
 1637 0b22 1A99      		sbic 35-32,2
 1638 0b24 00C0      		rjmp .L125
 1639 0b26 2091 0000 		lds r18,forwardback_hightime
 1640 0b2a 3091 0000 		lds r19,(forwardback_hightime)+1
 1641 0b2e 4091 0000 		lds r20,(forwardback_hightime)+2
 1642 0b32 5091 0000 		lds r21,(forwardback_hightime)+3
 1643 0b36 2115      		cp r18,__zero_reg__
 1644 0b38 3105      		cpc r19,__zero_reg__
 1645 0b3a 4105      		cpc r20,__zero_reg__
 1646 0b3c 5105      		cpc r21,__zero_reg__
 1647 0b3e 01F0      		breq .L125
 1648 0b40 8091 8400 		lds r24,132
 1649 0b44 9091 8500 		lds r25,(132)+1
 1650 0b48 A0E0      		ldi r26,lo8(0)
 1651 0b4a B0E0      		ldi r27,hi8(0)
 1652 0b4c 2817      		cp r18,r24
 1653 0b4e 3907      		cpc r19,r25
 1654 0b50 4A07      		cpc r20,r26
 1655 0b52 5B07      		cpc r21,r27
 1656 0b54 04F4      		brge .L125
 1657 0b56 8091 8400 		lds r24,132
 1658 0b5a 9091 8500 		lds r25,(132)+1
 1659 0b5e A0E0      		ldi r26,lo8(0)
 1660 0b60 B0E0      		ldi r27,hi8(0)
 1661 0b62 821B      		sub r24,r18
 1662 0b64 930B      		sbc r25,r19
 1663 0b66 A40B      		sbc r26,r20
 1664 0b68 B50B      		sbc r27,r21
 1665 0b6a 8093 0000 		sts forwardback,r24
 1666 0b6e 9093 0000 		sts (forwardback)+1,r25
 1667 0b72 A093 0000 		sts (forwardback)+2,r26
 1668 0b76 B093 0000 		sts (forwardback)+3,r27
 1669               	.L125:
 1670               	.LM179:
 1671 0b7a 83B1      		in r24,35-32
 1672 0b7c 90E0      		ldi r25,lo8(0)
 1673 0b7e 8470      		andi r24,lo8(4)
 1674 0b80 9070      		andi r25,hi8(4)
 1675 0b82 9093 0000 		sts (forwardback_hilow)+1,r25
 1676 0b86 8093 0000 		sts forwardback_hilow,r24
 1677               	/* epilogue start */
 1678               	.LM180:
 1679 0b8a 0895      		ret
 1680               	.LFE33:
 1682               	.global	__vector_3
 1684               	__vector_3:
 1685               	.LFB29:
 1686               	.LM181:
 1687 0b8c 1F92      		push __zero_reg__
 1688 0b8e 0F92      		push r0
 1689 0b90 0FB6      		in r0,__SREG__
 1690 0b92 0F92      		push r0
 1691 0b94 1124      		clr __zero_reg__
 1692 0b96 2F93      		push r18
 1693 0b98 3F93      		push r19
 1694 0b9a 4F93      		push r20
 1695 0b9c 5F93      		push r21
 1696 0b9e 6F93      		push r22
 1697 0ba0 7F93      		push r23
 1698 0ba2 8F93      		push r24
 1699 0ba4 9F93      		push r25
 1700 0ba6 AF93      		push r26
 1701 0ba8 BF93      		push r27
 1702 0baa EF93      		push r30
 1703 0bac FF93      		push r31
 1704               	/* prologue: Signal */
 1705               	/* frame size = 0 */
 1706               	.LM182:
 1707 0bae 83B1      		in r24,35-32
 1708 0bb0 90E0      		ldi r25,lo8(0)
 1709 0bb2 8170      		andi r24,lo8(1)
 1710 0bb4 9070      		andi r25,hi8(1)
 1711 0bb6 2091 0000 		lds r18,throttle_hilow
 1712 0bba 3091 0000 		lds r19,(throttle_hilow)+1
 1713 0bbe 2817      		cp r18,r24
 1714 0bc0 3907      		cpc r19,r25
 1715 0bc2 01F0      		breq .L128
 1716 0bc4 0E94 0000 		call throttle_change
 1717               	.L128:
 1718               	.LM183:
 1719 0bc8 83B1      		in r24,35-32
 1720 0bca 90E0      		ldi r25,lo8(0)
 1721 0bcc 8270      		andi r24,lo8(2)
 1722 0bce 9070      		andi r25,hi8(2)
 1723 0bd0 2091 0000 		lds r18,leftright_hilow
 1724 0bd4 3091 0000 		lds r19,(leftright_hilow)+1
 1725 0bd8 2817      		cp r18,r24
 1726 0bda 3907      		cpc r19,r25
 1727 0bdc 01F0      		breq .L129
 1728 0bde 0E94 0000 		call leftright_change
 1729               	.L129:
 1730               	.LM184:
 1731 0be2 83B1      		in r24,35-32
 1732 0be4 90E0      		ldi r25,lo8(0)
 1733 0be6 8470      		andi r24,lo8(4)
 1734 0be8 9070      		andi r25,hi8(4)
 1735 0bea 2091 0000 		lds r18,forwardback_hilow
 1736 0bee 3091 0000 		lds r19,(forwardback_hilow)+1
 1737 0bf2 2817      		cp r18,r24
 1738 0bf4 3907      		cpc r19,r25
 1739 0bf6 01F0      		breq .L131
 1740 0bf8 0E94 0000 		call forwardback_change
 1741               	.L131:
 1742               	/* epilogue start */
 1743               	.LM185:
 1744 0bfc FF91      		pop r31
 1745 0bfe EF91      		pop r30
 1746 0c00 BF91      		pop r27
 1747 0c02 AF91      		pop r26
 1748 0c04 9F91      		pop r25
 1749 0c06 8F91      		pop r24
 1750 0c08 7F91      		pop r23
 1751 0c0a 6F91      		pop r22
 1752 0c0c 5F91      		pop r21
 1753 0c0e 4F91      		pop r20
 1754 0c10 3F91      		pop r19
 1755 0c12 2F91      		pop r18
 1756 0c14 0F90      		pop r0
 1757 0c16 0FBE      		out __SREG__,r0
 1758 0c18 0F90      		pop r0
 1759 0c1a 1F90      		pop __zero_reg__
 1760 0c1c 1895      		reti
 1761               	.LFE29:
 1763               	.global	SetupTimer1
 1765               	SetupTimer1:
 1766               	.LFB34:
 1767               	.LM186:
 1768               	/* prologue: function */
 1769               	/* frame size = 0 */
 1770               	.LM187:
 1771 0c1e 1092 8000 		sts 128,__zero_reg__
 1772               	.LM188:
 1773 0c22 83E0      		ldi r24,lo8(3)
 1774 0c24 8093 8100 		sts 129,r24
 1775               	/* epilogue start */
 1776               	.LM189:
 1777 0c28 0895      		ret
 1778               	.LFE34:
 1780               	.global	adc_init
 1782               	adc_init:
 1783               	.LFB35:
 1784               	.LM190:
 1785               	/* prologue: function */
 1786               	/* frame size = 0 */
 1787               	.LM191:
 1788 0c2a 1092 7B00 		sts 123,__zero_reg__
 1789               	.LM192:
 1790 0c2e 86E8      		ldi r24,lo8(-122)
 1791 0c30 8093 7A00 		sts 122,r24
 1792               	.LM193:
 1793 0c34 84E0      		ldi r24,lo8(4)
 1794 0c36 8093 7C00 		sts 124,r24
 1795               	/* epilogue start */
 1796               	.LM194:
 1797 0c3a 0895      		ret
 1798               	.LFE35:
 1800               	.global	read_adc
 1802               	read_adc:
 1803               	.LFB36:
 1804               	.LM195:
 1805               	/* prologue: function */
 1806               	/* frame size = 0 */
 1807               	.LM196:
 1808 0c3c 8091 7A00 		lds r24,122
 1809 0c40 8064      		ori r24,lo8(64)
 1810 0c42 8093 7A00 		sts 122,r24
 1811               	.L137:
 1812               	.LM197:
 1813 0c46 8091 7A00 		lds r24,122
 1814 0c4a 86FD      		sbrc r24,6
 1815 0c4c 00C0      		rjmp .L137
 1816               	.LM198:
 1817 0c4e 9091 7800 		lds r25,120
 1818               	.LM199:
 1819 0c52 8091 7900 		lds r24,121
 1820 0c56 382F      		mov r19,r24
 1821 0c58 20E0      		ldi r18,lo8(0)
 1822 0c5a 290F      		add r18,r25
 1823 0c5c 311D      		adc r19,__zero_reg__
 1824               	.LM200:
 1825 0c5e C901      		movw r24,r18
 1826               	/* epilogue start */
 1827 0c60 0895      		ret
 1828               	.LFE36:
 1830               	.global	main_calculations
 1832               	main_calculations:
 1833               	.LFB23:
 1834               	.LM201:
 1835 0c62 2F92      		push r2
 1836 0c64 3F92      		push r3
 1837 0c66 4F92      		push r4
 1838 0c68 5F92      		push r5
 1839 0c6a 6F92      		push r6
 1840 0c6c 7F92      		push r7
 1841 0c6e 8F92      		push r8
 1842 0c70 9F92      		push r9
 1843 0c72 AF92      		push r10
 1844 0c74 BF92      		push r11
 1845 0c76 CF92      		push r12
 1846 0c78 DF92      		push r13
 1847 0c7a EF92      		push r14
 1848 0c7c FF92      		push r15
 1849 0c7e 0F93      		push r16
 1850 0c80 1F93      		push r17
 1851 0c82 DF93      		push r29
 1852 0c84 CF93      		push r28
 1853 0c86 00D0      		rcall .
 1854 0c88 00D0      		rcall .
 1855 0c8a 00D0      		rcall .
 1856 0c8c CDB7      		in r28,__SP_L__
 1857 0c8e DEB7      		in r29,__SP_H__
 1858               	/* prologue: function */
 1859               	/* frame size = 6 */
 1860               	.LBB224:
 1861               	.LBB225:
 1862               	.LM202:
 1863 0c90 1092 0000 		sts throttle_hightime,__zero_reg__
 1864 0c94 1092 0000 		sts (throttle_hightime)+1,__zero_reg__
 1865 0c98 1092 0000 		sts (throttle_hightime)+2,__zero_reg__
 1866 0c9c 1092 0000 		sts (throttle_hightime)+3,__zero_reg__
 1867               	.LM203:
 1868 0ca0 1092 0000 		sts leftright_hightime,__zero_reg__
 1869 0ca4 1092 0000 		sts (leftright_hightime)+1,__zero_reg__
 1870 0ca8 1092 0000 		sts (leftright_hightime)+2,__zero_reg__
 1871 0cac 1092 0000 		sts (leftright_hightime)+3,__zero_reg__
 1872               	.LM204:
 1873 0cb0 1092 0000 		sts forwardback_hightime,__zero_reg__
 1874 0cb4 1092 0000 		sts (forwardback_hightime)+1,__zero_reg__
 1875 0cb8 1092 0000 		sts (forwardback_hightime)+2,__zero_reg__
 1876 0cbc 1092 0000 		sts (forwardback_hightime)+3,__zero_reg__
 1877               	.LBE225:
 1878               	.LBE224:
 1879               	.LM205:
 1880 0cc0 1092 8500 		sts (132)+1,__zero_reg__
 1881 0cc4 1092 8400 		sts 132,__zero_reg__
 1882               	.LM206:
 1883               	/* #APP */
 1884               	 ;  854 "main.c" 1
 1885 0cc8 F894      		cli
 1886               	 ;  0 "" 2
 1887               	.LM207:
 1888               	/* #NOAPP */
 1889 0cca 2091 0000 		lds r18,forwardback
 1890 0cce 3091 0000 		lds r19,(forwardback)+1
 1891 0cd2 4091 0000 		lds r20,(forwardback)+2
 1892 0cd6 5091 0000 		lds r21,(forwardback)+3
 1893 0cda 6091 0000 		lds r22,forwardback_center
 1894 0cde 7091 0000 		lds r23,(forwardback_center)+1
 1895 0ce2 8091 0000 		lds r24,forwardback_forwardthresh
 1896 0ce6 9091 0000 		lds r25,(forwardback_forwardthresh)+1
 1897 0cea 860F      		add r24,r22
 1898 0cec 971F      		adc r25,r23
 1899 0cee AA27      		clr r26
 1900 0cf0 97FD      		sbrc r25,7
 1901 0cf2 A095      		com r26
 1902 0cf4 BA2F      		mov r27,r26
 1903 0cf6 8217      		cp r24,r18
 1904 0cf8 9307      		cpc r25,r19
 1905 0cfa A407      		cpc r26,r20
 1906 0cfc B507      		cpc r27,r21
 1907 0cfe 04F4      		brge .L141
 1908 0d00 81E0      		ldi r24,lo8(1)
 1909 0d02 90E0      		ldi r25,hi8(1)
 1910 0d04 9093 0000 		sts (forward)+1,r25
 1911 0d08 8093 0000 		sts forward,r24
 1912 0d0c 00C0      		rjmp .L142
 1913               	.L141:
 1914 0d0e 1092 0000 		sts (forward)+1,__zero_reg__
 1915 0d12 1092 0000 		sts forward,__zero_reg__
 1916               	.L142:
 1917               	.LM208:
 1918 0d16 2091 0000 		lds r18,forwardback
 1919 0d1a 3091 0000 		lds r19,(forwardback)+1
 1920 0d1e 4091 0000 		lds r20,(forwardback)+2
 1921 0d22 5091 0000 		lds r21,(forwardback)+3
 1922 0d26 8091 0000 		lds r24,forwardback_backthresh
 1923 0d2a 9091 0000 		lds r25,(forwardback_backthresh)+1
 1924 0d2e 680F      		add r22,r24
 1925 0d30 791F      		adc r23,r25
 1926 0d32 CB01      		movw r24,r22
 1927 0d34 AA27      		clr r26
 1928 0d36 97FD      		sbrc r25,7
 1929 0d38 A095      		com r26
 1930 0d3a BA2F      		mov r27,r26
 1931 0d3c 2817      		cp r18,r24
 1932 0d3e 3907      		cpc r19,r25
 1933 0d40 4A07      		cpc r20,r26
 1934 0d42 5B07      		cpc r21,r27
 1935 0d44 04F4      		brge .L143
 1936 0d46 81E0      		ldi r24,lo8(1)
 1937 0d48 90E0      		ldi r25,hi8(1)
 1938 0d4a 9093 0000 		sts (backward)+1,r25
 1939 0d4e 8093 0000 		sts backward,r24
 1940 0d52 00C0      		rjmp .L144
 1941               	.L143:
 1942 0d54 1092 0000 		sts (backward)+1,__zero_reg__
 1943 0d58 1092 0000 		sts backward,__zero_reg__
 1944               	.L144:
 1945               	.LM209:
 1946 0d5c 1092 0000 		sts (flashy_led)+1,__zero_reg__
 1947 0d60 1092 0000 		sts flashy_led,__zero_reg__
 1948               	.LBB226:
 1949               	.LBB227:
 1950               	.LM210:
 1951 0d64 8091 7A00 		lds r24,122
 1952 0d68 8064      		ori r24,lo8(64)
 1953 0d6a 8093 7A00 		sts 122,r24
 1954               	.L145:
 1955               	.LM211:
 1956 0d6e 8091 7A00 		lds r24,122
 1957 0d72 86FD      		sbrc r24,6
 1958 0d74 00C0      		rjmp .L145
 1959               	.LM212:
 1960 0d76 3091 7800 		lds r19,120
 1961               	.LM213:
 1962 0d7a 2091 7900 		lds r18,121
 1963 0d7e 722F      		mov r23,r18
 1964 0d80 60E0      		ldi r22,lo8(0)
 1965 0d82 630F      		add r22,r19
 1966 0d84 711D      		adc r23,__zero_reg__
 1967               	.LVL24:
 1968               	.LBE227:
 1969               	.LBE226:
 1970               	.LM214:
 1971 0d86 7093 0000 		sts (accel_raw_data)+1,r23
 1972 0d8a 6093 0000 		sts accel_raw_data,r22
 1973               	.LM215:
 1974 0d8e 80E0      		ldi r24,lo8(0)
 1975 0d90 90E0      		ldi r25,hi8(0)
 1976               	.LVL25:
 1977 0d92 0E94 0000 		call __floatunsisf
 1978               	.LVL26:
 1979 0d96 7B01      		movw r14,r22
 1980 0d98 8C01      		movw r16,r24
 1981 0d9a 6091 0000 		lds r22,base_accel
 1982 0d9e 7091 0000 		lds r23,(base_accel)+1
 1983 0da2 8827      		clr r24
 1984 0da4 77FD      		sbrc r23,7
 1985 0da6 8095      		com r24
 1986 0da8 982F      		mov r25,r24
 1987 0daa 0E94 0000 		call __floatsisf
 1988 0dae 9B01      		movw r18,r22
 1989 0db0 AC01      		movw r20,r24
 1990 0db2 C801      		movw r24,r16
 1991 0db4 B701      		movw r22,r14
 1992 0db6 0E94 0000 		call __subsf3
 1993 0dba 6093 0000 		sts accel_read,r22
 1994 0dbe 7093 0000 		sts (accel_read)+1,r23
 1995 0dc2 8093 0000 		sts (accel_read)+2,r24
 1996 0dc6 9093 0000 		sts (accel_read)+3,r25
 1997               	.LM216:
 1998 0dca 2091 0000 		lds r18,g_per_adc_increment
 1999 0dce 3091 0000 		lds r19,(g_per_adc_increment)+1
 2000 0dd2 4091 0000 		lds r20,(g_per_adc_increment)+2
 2001 0dd6 5091 0000 		lds r21,(g_per_adc_increment)+3
 2002 0dda 0E94 0000 		call __mulsf3
 2003 0dde 3B01      		movw r6,r22
 2004 0de0 4C01      		movw r8,r24
 2005 0de2 6093 0000 		sts g,r22
 2006 0de6 7093 0000 		sts (g)+1,r23
 2007 0dea 8093 0000 		sts (g)+2,r24
 2008 0dee 9093 0000 		sts (g)+3,r25
 2009               	.LM217:
 2010 0df2 20E8      		ldi r18,lo8(0x47aeb280)
 2011 0df4 32EB      		ldi r19,hi8(0x47aeb280)
 2012 0df6 4EEA      		ldi r20,hlo8(0x47aeb280)
 2013 0df8 57E4      		ldi r21,hhi8(0x47aeb280)
 2014 0dfa 0E94 0000 		call __mulsf3
 2015 0dfe 2091 0000 		lds r18,radius
 2016 0e02 3091 0000 		lds r19,(radius)+1
 2017 0e06 4091 0000 		lds r20,(radius)+2
 2018 0e0a 5091 0000 		lds r21,(radius)+3
 2019 0e0e 0E94 0000 		call __divsf3
 2020 0e12 0E94 0000 		call sqrt
 2021 0e16 7B01      		movw r14,r22
 2022 0e18 8C01      		movw r16,r24
 2023 0e1a 1701      		movw r2,r14
 2024 0e1c 2801      		movw r4,r16
 2025 0e1e E092 0000 		sts rpm,r14
 2026 0e22 F092 0000 		sts (rpm)+1,r15
 2027 0e26 0093 0000 		sts (rpm)+2,r16
 2028 0e2a 1093 0000 		sts (rpm)+3,r17
 2029               	.LM218:
 2030 0e2e 6091 0000 		lds r22,max_observed_rpm
 2031 0e32 7091 0000 		lds r23,(max_observed_rpm)+1
 2032 0e36 8091 0000 		lds r24,(max_observed_rpm)+2
 2033 0e3a 9091 0000 		lds r25,(max_observed_rpm)+3
 2034 0e3e 0E94 0000 		call __floatsisf
 2035 0e42 9B01      		movw r18,r22
 2036 0e44 AC01      		movw r20,r24
 2037 0e46 C801      		movw r24,r16
 2038 0e48 B701      		movw r22,r14
 2039 0e4a 0E94 0000 		call __gtsf2
 2040 0e4e 1816      		cp __zero_reg__,r24
 2041 0e50 04F4      		brge .L146
 2042 0e52 C801      		movw r24,r16
 2043 0e54 B701      		movw r22,r14
 2044 0e56 0E94 0000 		call __fixsfsi
 2045 0e5a 6093 0000 		sts max_observed_rpm,r22
 2046 0e5e 7093 0000 		sts (max_observed_rpm)+1,r23
 2047 0e62 8093 0000 		sts (max_observed_rpm)+2,r24
 2048 0e66 9093 0000 		sts (max_observed_rpm)+3,r25
 2049               	.L146:
 2050               	.LM219:
 2051 0e6a C201      		movw r24,r4
 2052 0e6c B101      		movw r22,r2
 2053 0e6e 20E0      		ldi r18,lo8(0x42700000)
 2054 0e70 30E0      		ldi r19,hi8(0x42700000)
 2055 0e72 40E7      		ldi r20,hlo8(0x42700000)
 2056 0e74 52E4      		ldi r21,hhi8(0x42700000)
 2057 0e76 0E94 0000 		call __divsf3
 2058 0e7a 6093 0000 		sts full_spin_time_ms,r22
 2059 0e7e 7093 0000 		sts (full_spin_time_ms)+1,r23
 2060 0e82 8093 0000 		sts (full_spin_time_ms)+2,r24
 2061 0e86 9093 0000 		sts (full_spin_time_ms)+3,r25
 2062               	.LM220:
 2063 0e8a 20E0      		ldi r18,lo8(0x0)
 2064 0e8c 30E0      		ldi r19,hi8(0x0)
 2065 0e8e 40E0      		ldi r20,hlo8(0x0)
 2066 0e90 50E0      		ldi r21,hhi8(0x0)
 2067 0e92 0E94 0000 		call __eqsf2
 2068 0e96 8823      		tst r24
 2069 0e98 01F4      		brne .L148
 2070 0e9a 80E0      		ldi r24,lo8(0x3f800000)
 2071 0e9c 90E0      		ldi r25,hi8(0x3f800000)
 2072 0e9e A0E8      		ldi r26,hlo8(0x3f800000)
 2073 0ea0 BFE3      		ldi r27,hhi8(0x3f800000)
 2074 0ea2 8093 0000 		sts full_spin_time_ms,r24
 2075 0ea6 9093 0000 		sts (full_spin_time_ms)+1,r25
 2076 0eaa A093 0000 		sts (full_spin_time_ms)+2,r26
 2077 0eae B093 0000 		sts (full_spin_time_ms)+3,r27
 2078               	.L148:
 2079               	.LM221:
 2080 0eb2 60E0      		ldi r22,lo8(0x3f800000)
 2081 0eb4 70E0      		ldi r23,hi8(0x3f800000)
 2082 0eb6 80E8      		ldi r24,hlo8(0x3f800000)
 2083 0eb8 9FE3      		ldi r25,hhi8(0x3f800000)
 2084 0eba 2091 0000 		lds r18,full_spin_time_ms
 2085 0ebe 3091 0000 		lds r19,(full_spin_time_ms)+1
 2086 0ec2 4091 0000 		lds r20,(full_spin_time_ms)+2
 2087 0ec6 5091 0000 		lds r21,(full_spin_time_ms)+3
 2088 0eca 0E94 0000 		call __divsf3
 2089 0ece 20E0      		ldi r18,lo8(0x447a0000)
 2090 0ed0 30E0      		ldi r19,hi8(0x447a0000)
 2091 0ed2 4AE7      		ldi r20,hlo8(0x447a0000)
 2092 0ed4 54E4      		ldi r21,hhi8(0x447a0000)
 2093 0ed6 0E94 0000 		call __mulsf3
 2094 0eda 2091 0000 		lds r18,tracking_comp
 2095 0ede 3091 0000 		lds r19,(tracking_comp)+1
 2096 0ee2 4091 0000 		lds r20,(tracking_comp)+2
 2097 0ee6 5091 0000 		lds r21,(tracking_comp)+3
 2098 0eea 0E94 0000 		call __mulsf3
 2099 0eee 9B01      		movw r18,r22
 2100 0ef0 AC01      		movw r20,r24
 2101 0ef2 6093 0000 		sts full_spin_time_ms,r22
 2102 0ef6 7093 0000 		sts (full_spin_time_ms)+1,r23
 2103 0efa 8093 0000 		sts (full_spin_time_ms)+2,r24
 2104 0efe 9093 0000 		sts (full_spin_time_ms)+3,r25
 2105               	.LM222:
 2106 0f02 8091 0000 		lds r24,forward
 2107 0f06 9091 0000 		lds r25,(forward)+1
 2108 0f0a 0197      		sbiw r24,1
 2109 0f0c 01F4      		brne .L150
 2110 0f0e CA01      		movw r24,r20
 2111 0f10 B901      		movw r22,r18
 2112 0f12 2091 0000 		lds r18,forward_comp
 2113 0f16 3091 0000 		lds r19,(forward_comp)+1
 2114 0f1a 4091 0000 		lds r20,(forward_comp)+2
 2115 0f1e 5091 0000 		lds r21,(forward_comp)+3
 2116 0f22 0E94 0000 		call __mulsf3
 2117 0f26 6093 0000 		sts full_spin_time_ms,r22
 2118 0f2a 7093 0000 		sts (full_spin_time_ms)+1,r23
 2119 0f2e 8093 0000 		sts (full_spin_time_ms)+2,r24
 2120 0f32 9093 0000 		sts (full_spin_time_ms)+3,r25
 2121               	.L150:
 2122               	.LM223:
 2123 0f36 8091 0000 		lds r24,backward
 2124 0f3a 9091 0000 		lds r25,(backward)+1
 2125 0f3e 0197      		sbiw r24,1
 2126 0f40 01F4      		brne .L151
 2127 0f42 6091 0000 		lds r22,full_spin_time_ms
 2128 0f46 7091 0000 		lds r23,(full_spin_time_ms)+1
 2129 0f4a 8091 0000 		lds r24,(full_spin_time_ms)+2
 2130 0f4e 9091 0000 		lds r25,(full_spin_time_ms)+3
 2131 0f52 2091 0000 		lds r18,backward_comp
 2132 0f56 3091 0000 		lds r19,(backward_comp)+1
 2133 0f5a 4091 0000 		lds r20,(backward_comp)+2
 2134 0f5e 5091 0000 		lds r21,(backward_comp)+3
 2135 0f62 0E94 0000 		call __mulsf3
 2136 0f66 6093 0000 		sts full_spin_time_ms,r22
 2137 0f6a 7093 0000 		sts (full_spin_time_ms)+1,r23
 2138 0f6e 8093 0000 		sts (full_spin_time_ms)+2,r24
 2139 0f72 9093 0000 		sts (full_spin_time_ms)+3,r25
 2140               	.L151:
 2141               	.LM224:
 2142 0f76 6091 0000 		lds r22,throttle
 2143 0f7a 7091 0000 		lds r23,(throttle)+1
 2144 0f7e 8091 0000 		lds r24,(throttle)+2
 2145 0f82 9091 0000 		lds r25,(throttle)+3
 2146 0f86 0091 0000 		lds r16,throttle_low
 2147 0f8a 1091 0000 		lds r17,(throttle_low)+1
 2148 0f8e 9801      		movw r18,r16
 2149 0f90 4427      		clr r20
 2150 0f92 37FD      		sbrc r19,7
 2151 0f94 4095      		com r20
 2152 0f96 542F      		mov r21,r20
 2153 0f98 621B      		sub r22,r18
 2154 0f9a 730B      		sbc r23,r19
 2155 0f9c 840B      		sbc r24,r20
 2156 0f9e 950B      		sbc r25,r21
 2157 0fa0 24E6      		ldi r18,lo8(100)
 2158 0fa2 30E0      		ldi r19,hi8(100)
 2159 0fa4 40E0      		ldi r20,hlo8(100)
 2160 0fa6 50E0      		ldi r21,hhi8(100)
 2161 0fa8 0E94 0000 		call __mulsi3
 2162 0fac 2091 0000 		lds r18,throttle_high
 2163 0fb0 3091 0000 		lds r19,(throttle_high)+1
 2164 0fb4 201B      		sub r18,r16
 2165 0fb6 310B      		sbc r19,r17
 2166 0fb8 4427      		clr r20
 2167 0fba 37FD      		sbrc r19,7
 2168 0fbc 4095      		com r20
 2169 0fbe 542F      		mov r21,r20
 2170 0fc0 0E94 0000 		call __divmodsi4
 2171 0fc4 CA01      		movw r24,r20
 2172 0fc6 B901      		movw r22,r18
 2173 0fc8 0E94 0000 		call __floatsisf
 2174 0fcc 6093 0000 		sts throttle_percent,r22
 2175 0fd0 7093 0000 		sts (throttle_percent)+1,r23
 2176 0fd4 8093 0000 		sts (throttle_percent)+2,r24
 2177 0fd8 9093 0000 		sts (throttle_percent)+3,r25
 2178               	.LM225:
 2179 0fdc 20E0      		ldi r18,lo8(0x41400000)
 2180 0fde 30E0      		ldi r19,hi8(0x41400000)
 2181 0fe0 40E4      		ldi r20,hlo8(0x41400000)
 2182 0fe2 51E4      		ldi r21,hhi8(0x41400000)
 2183 0fe4 0E94 0000 		call __ltsf2
 2184 0fe8 8823      		tst r24
 2185 0fea 04F4      		brge .L152
 2186 0fec 80E0      		ldi r24,lo8(0x41400000)
 2187 0fee 90E0      		ldi r25,hi8(0x41400000)
 2188 0ff0 A0E4      		ldi r26,hlo8(0x41400000)
 2189 0ff2 B1E4      		ldi r27,hhi8(0x41400000)
 2190 0ff4 8093 0000 		sts throttle_percent,r24
 2191 0ff8 9093 0000 		sts (throttle_percent)+1,r25
 2192 0ffc A093 0000 		sts (throttle_percent)+2,r26
 2193 1000 B093 0000 		sts (throttle_percent)+3,r27
 2194               	.L152:
 2195               	.LM226:
 2196 1004 6091 0000 		lds r22,throttle_percent
 2197 1008 7091 0000 		lds r23,(throttle_percent)+1
 2198 100c 8091 0000 		lds r24,(throttle_percent)+2
 2199 1010 9091 0000 		lds r25,(throttle_percent)+3
 2200 1014 20E0      		ldi r18,lo8(0x42c80000)
 2201 1016 30E0      		ldi r19,hi8(0x42c80000)
 2202 1018 48EC      		ldi r20,hlo8(0x42c80000)
 2203 101a 52E4      		ldi r21,hhi8(0x42c80000)
 2204 101c 0E94 0000 		call __gtsf2
 2205 1020 1816      		cp __zero_reg__,r24
 2206 1022 04F4      		brge .L154
 2207 1024 80E0      		ldi r24,lo8(0x42c80000)
 2208 1026 90E0      		ldi r25,hi8(0x42c80000)
 2209 1028 A8EC      		ldi r26,hlo8(0x42c80000)
 2210 102a B2E4      		ldi r27,hhi8(0x42c80000)
 2211 102c 8093 0000 		sts throttle_percent,r24
 2212 1030 9093 0000 		sts (throttle_percent)+1,r25
 2213 1034 A093 0000 		sts (throttle_percent)+2,r26
 2214 1038 B093 0000 		sts (throttle_percent)+3,r27
 2215               	.L154:
 2216               	.LM227:
 2217 103c 2091 0000 		lds r18,throttle_percent
 2218 1040 3091 0000 		lds r19,(throttle_percent)+1
 2219 1044 4091 0000 		lds r20,(throttle_percent)+2
 2220 1048 5091 0000 		lds r21,(throttle_percent)+3
 2221 104c 2093 0000 		sts config_mode_throttle_percent,r18
 2222 1050 3093 0000 		sts (config_mode_throttle_percent)+1,r19
 2223 1054 4093 0000 		sts (config_mode_throttle_percent)+2,r20
 2224 1058 5093 0000 		sts (config_mode_throttle_percent)+3,r21
 2225               	.LM228:
 2226 105c 8091 0000 		lds r24,in_config_mode
 2227 1060 9091 0000 		lds r25,(in_config_mode)+1
 2228 1064 9E83      		std Y+6,r25
 2229 1066 8D83      		std Y+5,r24
 2230 1068 0197      		sbiw r24,1
 2231 106a 01F4      		brne .L156
 2232 106c 80E0      		ldi r24,lo8(0x42480000)
 2233 106e 90E0      		ldi r25,hi8(0x42480000)
 2234 1070 A8E4      		ldi r26,hlo8(0x42480000)
 2235 1072 B2E4      		ldi r27,hhi8(0x42480000)
 2236 1074 8093 0000 		sts throttle_percent,r24
 2237 1078 9093 0000 		sts (throttle_percent)+1,r25
 2238 107c A093 0000 		sts (throttle_percent)+2,r26
 2239 1080 B093 0000 		sts (throttle_percent)+3,r27
 2240 1084 00C0      		rjmp .L157
 2241               	.L156:
 2242               	.LM229:
 2243 1086 AD81      		ldd r26,Y+5
 2244 1088 BE81      		ldd r27,Y+6
 2245 108a AB2B      		or r26,r27
 2246 108c 01F0      		breq .L158
 2247               	.L157:
 2248 108e CA01      		movw r24,r20
 2249 1090 B901      		movw r22,r18
 2250 1092 20E0      		ldi r18,lo8(0x42b40000)
 2251 1094 30E0      		ldi r19,hi8(0x42b40000)
 2252 1096 44EB      		ldi r20,hlo8(0x42b40000)
 2253 1098 52E4      		ldi r21,hhi8(0x42b40000)
 2254 109a 0E94 0000 		call __gtsf2
 2255 109e 1816      		cp __zero_reg__,r24
 2256 10a0 04F0      		brlt .+2
 2257 10a2 00C0      		rjmp .L159
 2258               	.L158:
 2259               	.LM230:
 2260 10a4 2091 0000 		lds r18,leftright
 2261 10a8 3091 0000 		lds r19,(leftright)+1
 2262 10ac 4091 0000 		lds r20,(leftright)+2
 2263 10b0 5091 0000 		lds r21,(leftright)+3
 2264               	.LM231:
 2265 10b4 6091 0000 		lds r22,heading_center
 2266 10b8 7091 0000 		lds r23,(heading_center)+1
 2267 10bc 8827      		clr r24
 2268 10be 77FD      		sbrc r23,7
 2269 10c0 8095      		com r24
 2270 10c2 982F      		mov r25,r24
 2271 10c4 621B      		sub r22,r18
 2272 10c6 730B      		sbc r23,r19
 2273 10c8 840B      		sbc r24,r20
 2274 10ca 950B      		sbc r25,r21
 2275 10cc 0E94 0000 		call __floatsisf
 2276 10d0 2091 0000 		lds r18,turn_speed
 2277 10d4 3091 0000 		lds r19,(turn_speed)+1
 2278 10d8 4091 0000 		lds r20,(turn_speed)+2
 2279 10dc 5091 0000 		lds r21,(turn_speed)+3
 2280 10e0 0E94 0000 		call __mulsf3
 2281 10e4 9B01      		movw r18,r22
 2282 10e6 AC01      		movw r20,r24
 2283               	.LM232:
 2284 10e8 60E0      		ldi r22,lo8(0x3f800000)
 2285 10ea 70E0      		ldi r23,hi8(0x3f800000)
 2286 10ec 80E8      		ldi r24,hlo8(0x3f800000)
 2287 10ee 9FE3      		ldi r25,hhi8(0x3f800000)
 2288 10f0 0E94 0000 		call __subsf3
 2289 10f4 9B01      		movw r18,r22
 2290 10f6 AC01      		movw r20,r24
 2291 10f8 6093 0000 		sts steering_multiplier,r22
 2292 10fc 7093 0000 		sts (steering_multiplier)+1,r23
 2293 1100 8093 0000 		sts (steering_multiplier)+2,r24
 2294 1104 9093 0000 		sts (steering_multiplier)+3,r25
 2295               	.LM233:
 2296 1108 6091 0000 		lds r22,full_spin_time_ms
 2297 110c 7091 0000 		lds r23,(full_spin_time_ms)+1
 2298 1110 8091 0000 		lds r24,(full_spin_time_ms)+2
 2299 1114 9091 0000 		lds r25,(full_spin_time_ms)+3
 2300 1118 0E94 0000 		call __mulsf3
 2301 111c 6093 0000 		sts full_spin_time_ms,r22
 2302 1120 7093 0000 		sts (full_spin_time_ms)+1,r23
 2303 1124 8093 0000 		sts (full_spin_time_ms)+2,r24
 2304 1128 9093 0000 		sts (full_spin_time_ms)+3,r25
 2305               	.L159:
 2306               	.LM234:
 2307 112c A090 0000 		lds r10,full_spin_time_ms
 2308 1130 B090 0000 		lds r11,(full_spin_time_ms)+1
 2309 1134 C090 0000 		lds r12,(full_spin_time_ms)+2
 2310 1138 D090 0000 		lds r13,(full_spin_time_ms)+3
 2311 113c C601      		movw r24,r12
 2312 113e B501      		movw r22,r10
 2313 1140 20E0      		ldi r18,lo8(0x3f000000)
 2314 1142 30E0      		ldi r19,hi8(0x3f000000)
 2315 1144 40E0      		ldi r20,hlo8(0x3f000000)
 2316 1146 5FE3      		ldi r21,hhi8(0x3f000000)
 2317 1148 0E94 0000 		call __mulsf3
 2318 114c 6093 0000 		sts half_spin_time,r22
 2319 1150 7093 0000 		sts (half_spin_time)+1,r23
 2320 1154 8093 0000 		sts (half_spin_time)+2,r24
 2321 1158 9093 0000 		sts (half_spin_time)+3,r25
 2322               	.LM235:
 2323 115c 20E0      		ldi r18,lo8(0x43480000)
 2324 115e 30E0      		ldi r19,hi8(0x43480000)
 2325 1160 48E4      		ldi r20,hlo8(0x43480000)
 2326 1162 53E4      		ldi r21,hhi8(0x43480000)
 2327 1164 0E94 0000 		call __gtsf2
 2328 1168 1816      		cp __zero_reg__,r24
 2329 116a 04F4      		brge .L161
 2330 116c 80E0      		ldi r24,lo8(0x43480000)
 2331 116e 90E0      		ldi r25,hi8(0x43480000)
 2332 1170 A8E4      		ldi r26,hlo8(0x43480000)
 2333 1172 B3E4      		ldi r27,hhi8(0x43480000)
 2334 1174 8093 0000 		sts half_spin_time,r24
 2335 1178 9093 0000 		sts (half_spin_time)+1,r25
 2336 117c A093 0000 		sts (half_spin_time)+2,r26
 2337 1180 B093 0000 		sts (half_spin_time)+3,r27
 2338               	.L161:
 2339               	.LM236:
 2340 1184 6091 0000 		lds r22,half_spin_time
 2341 1188 7091 0000 		lds r23,(half_spin_time)+1
 2342 118c 8091 0000 		lds r24,(half_spin_time)+2
 2343 1190 9091 0000 		lds r25,(half_spin_time)+3
 2344 1194 20E0      		ldi r18,lo8(0x40a00000)
 2345 1196 30E0      		ldi r19,hi8(0x40a00000)
 2346 1198 40EA      		ldi r20,hlo8(0x40a00000)
 2347 119a 50E4      		ldi r21,hhi8(0x40a00000)
 2348 119c 0E94 0000 		call __ltsf2
 2349 11a0 8823      		tst r24
 2350 11a2 04F4      		brge .L163
 2351 11a4 80E0      		ldi r24,lo8(0x40a00000)
 2352 11a6 90E0      		ldi r25,hi8(0x40a00000)
 2353 11a8 A0EA      		ldi r26,hlo8(0x40a00000)
 2354 11aa B0E4      		ldi r27,hhi8(0x40a00000)
 2355 11ac 8093 0000 		sts half_spin_time,r24
 2356 11b0 9093 0000 		sts (half_spin_time)+1,r25
 2357 11b4 A093 0000 		sts (half_spin_time)+2,r26
 2358 11b8 B093 0000 		sts (half_spin_time)+3,r27
 2359               	.L163:
 2360               	.LM237:
 2361 11bc C601      		movw r24,r12
 2362 11be B501      		movw r22,r10
 2363 11c0 2091 0000 		lds r18,led_adjust
 2364 11c4 3091 0000 		lds r19,(led_adjust)+1
 2365 11c8 4091 0000 		lds r20,(led_adjust)+2
 2366 11cc 5091 0000 		lds r21,(led_adjust)+3
 2367 11d0 0E94 0000 		call __mulsf3
 2368 11d4 20E0      		ldi r18,lo8(0x42c80000)
 2369 11d6 30E0      		ldi r19,hi8(0x42c80000)
 2370 11d8 48EC      		ldi r20,hlo8(0x42c80000)
 2371 11da 52E4      		ldi r21,hhi8(0x42c80000)
 2372 11dc 0E94 0000 		call __divsf3
 2373 11e0 7B01      		movw r14,r22
 2374 11e2 8C01      		movw r16,r24
 2375 11e4 6093 0000 		sts led_on,r22
 2376 11e8 7093 0000 		sts (led_on)+1,r23
 2377 11ec 8093 0000 		sts (led_on)+2,r24
 2378 11f0 9093 0000 		sts (led_on)+3,r25
 2379               	.LM238:
 2380 11f4 C601      		movw r24,r12
 2381 11f6 B501      		movw r22,r10
 2382 11f8 20E0      		ldi r18,lo8(0x40400000)
 2383 11fa 30E0      		ldi r19,hi8(0x40400000)
 2384 11fc 40E4      		ldi r20,hlo8(0x40400000)
 2385 11fe 50E4      		ldi r21,hhi8(0x40400000)
 2386 1200 0E94 0000 		call __divsf3
 2387 1204 A801      		movw r20,r16
 2388 1206 9701      		movw r18,r14
 2389 1208 0E94 0000 		call __addsf3
 2390 120c 7B01      		movw r14,r22
 2391 120e 8C01      		movw r16,r24
 2392 1210 6093 0000 		sts led_off,r22
 2393 1214 7093 0000 		sts (led_off)+1,r23
 2394 1218 8093 0000 		sts (led_off)+2,r24
 2395 121c 9093 0000 		sts (led_off)+3,r25
 2396               	.LM239:
 2397 1220 A601      		movw r20,r12
 2398 1222 9501      		movw r18,r10
 2399 1224 0E94 0000 		call __gesf2
 2400 1228 8823      		tst r24
 2401 122a 04F0      		brlt .L165
 2402               	.LM240:
 2403 122c C801      		movw r24,r16
 2404 122e B701      		movw r22,r14
 2405 1230 A601      		movw r20,r12
 2406 1232 9501      		movw r18,r10
 2407 1234 0E94 0000 		call __subsf3
 2408 1238 6093 0000 		sts led_off,r22
 2409 123c 7093 0000 		sts (led_off)+1,r23
 2410 1240 8093 0000 		sts (led_off)+2,r24
 2411 1244 9093 0000 		sts (led_off)+3,r25
 2412               	.L165:
 2413               	.LM241:
 2414 1248 E090 0000 		lds r14,led_off
 2415 124c F090 0000 		lds r15,(led_off)+1
 2416 1250 0091 0000 		lds r16,(led_off)+2
 2417 1254 1091 0000 		lds r17,(led_off)+3
 2418 1258 C801      		movw r24,r16
 2419 125a B701      		movw r22,r14
 2420 125c 20E0      		ldi r18,lo8(0x3f800000)
 2421 125e 30E0      		ldi r19,hi8(0x3f800000)
 2422 1260 40E8      		ldi r20,hlo8(0x3f800000)
 2423 1262 5FE3      		ldi r21,hhi8(0x3f800000)
 2424 1264 0E94 0000 		call __ltsf2
 2425 1268 8823      		tst r24
 2426 126a 04F4      		brge .L167
 2427 126c C801      		movw r24,r16
 2428 126e B701      		movw r22,r14
 2429 1270 A601      		movw r20,r12
 2430 1272 9501      		movw r18,r10
 2431 1274 0E94 0000 		call __addsf3
 2432 1278 6093 0000 		sts led_off,r22
 2433 127c 7093 0000 		sts (led_off)+1,r23
 2434 1280 8093 0000 		sts (led_off)+2,r24
 2435 1284 9093 0000 		sts (led_off)+3,r25
 2436               	.L167:
 2437               	.LM242:
 2438 1288 1092 0000 		sts (full_power_spin)+1,__zero_reg__
 2439 128c 1092 0000 		sts full_power_spin,__zero_reg__
 2440               	.LM243:
 2441 1290 C201      		movw r24,r4
 2442 1292 B101      		movw r22,r2
 2443 1294 2091 0000 		lds r18,min_rpm
 2444 1298 3091 0000 		lds r19,(min_rpm)+1
 2445 129c 4091 0000 		lds r20,(min_rpm)+2
 2446 12a0 5091 0000 		lds r21,(min_rpm)+3
 2447 12a4 0E94 0000 		call __ltsf2
 2448 12a8 8823      		tst r24
 2449 12aa 04F4      		brge .L169
 2450 12ac 81E0      		ldi r24,lo8(1)
 2451 12ae 90E0      		ldi r25,hi8(1)
 2452 12b0 9093 0000 		sts (full_power_spin)+1,r25
 2453 12b4 8093 0000 		sts full_power_spin,r24
 2454               	.L169:
 2455               	.LM244:
 2456 12b8 C401      		movw r24,r8
 2457 12ba B301      		movw r22,r6
 2458 12bc 2091 0000 		lds r18,max_g
 2459 12c0 3091 0000 		lds r19,(max_g)+1
 2460 12c4 4091 0000 		lds r20,(max_g)+2
 2461 12c8 5091 0000 		lds r21,(max_g)+3
 2462 12cc 0E94 0000 		call __gtsf2
 2463 12d0 1816      		cp __zero_reg__,r24
 2464 12d2 04F0      		brlt .L171
 2465 12d4 C201      		movw r24,r4
 2466 12d6 B101      		movw r22,r2
 2467 12d8 2091 0000 		lds r18,max_allowed_rpm
 2468 12dc 3091 0000 		lds r19,(max_allowed_rpm)+1
 2469 12e0 4091 0000 		lds r20,(max_allowed_rpm)+2
 2470 12e4 5091 0000 		lds r21,(max_allowed_rpm)+3
 2471 12e8 0E94 0000 		call __gtsf2
 2472 12ec 1816      		cp __zero_reg__,r24
 2473 12ee 04F4      		brge .L172
 2474               	.L171:
 2475 12f0 80E0      		ldi r24,lo8(0x41200000)
 2476 12f2 90E0      		ldi r25,hi8(0x41200000)
 2477 12f4 A0E2      		ldi r26,hlo8(0x41200000)
 2478 12f6 B1E4      		ldi r27,hhi8(0x41200000)
 2479 12f8 8093 0000 		sts throttle_percent,r24
 2480 12fc 9093 0000 		sts (throttle_percent)+1,r25
 2481 1300 A093 0000 		sts (throttle_percent)+2,r26
 2482 1304 B093 0000 		sts (throttle_percent)+3,r27
 2483               	.L172:
 2484               	.LM245:
 2485 1308 8091 0000 		lds r24,throttle_percent
 2486 130c 9091 0000 		lds r25,(throttle_percent)+1
 2487 1310 A091 0000 		lds r26,(throttle_percent)+2
 2488 1314 B091 0000 		lds r27,(throttle_percent)+3
 2489 1318 8983      		std Y+1,r24
 2490 131a 9A83      		std Y+2,r25
 2491 131c AB83      		std Y+3,r26
 2492 131e BC83      		std Y+4,r27
 2493 1320 BC01      		movw r22,r24
 2494 1322 CD01      		movw r24,r26
 2495 1324 20E0      		ldi r18,lo8(0x42480000)
 2496 1326 30E0      		ldi r19,hi8(0x42480000)
 2497 1328 48E4      		ldi r20,hlo8(0x42480000)
 2498 132a 52E4      		ldi r21,hhi8(0x42480000)
 2499 132c 0E94 0000 		call __gtsf2
 2500 1330 1816      		cp __zero_reg__,r24
 2501 1332 04F0      		brlt .+2
 2502 1334 00C0      		rjmp .L174
 2503               	.LM246:
 2504 1336 81E0      		ldi r24,lo8(1)
 2505 1338 90E0      		ldi r25,hi8(1)
 2506 133a 9093 0000 		sts (flashy_led)+1,r25
 2507 133e 8093 0000 		sts flashy_led,r24
 2508               	.LM247:
 2509 1342 2090 0000 		lds r2,half_spin_time
 2510 1346 3090 0000 		lds r3,(half_spin_time)+1
 2511 134a 4090 0000 		lds r4,(half_spin_time)+2
 2512 134e 5090 0000 		lds r5,(half_spin_time)+3
 2513 1352 C201      		movw r24,r4
 2514 1354 B101      		movw r22,r2
 2515 1356 20E0      		ldi r18,lo8(0x41c80000)
 2516 1358 30E0      		ldi r19,hi8(0x41c80000)
 2517 135a 48EC      		ldi r20,hlo8(0x41c80000)
 2518 135c 51E4      		ldi r21,hhi8(0x41c80000)
 2519 135e 0E94 0000 		call __mulsf3
 2520               	.LM248:
 2521 1362 2981      		ldd r18,Y+1
 2522 1364 3A81      		ldd r19,Y+2
 2523 1366 4B81      		ldd r20,Y+3
 2524 1368 5C81      		ldd r21,Y+4
 2525 136a 0E94 0000 		call __divsf3
 2526 136e 7B01      		movw r14,r22
 2527 1370 8C01      		movw r16,r24
 2528 1372 6093 0000 		sts braking_length,r22
 2529 1376 7093 0000 		sts (braking_length)+1,r23
 2530 137a 8093 0000 		sts (braking_length)+2,r24
 2531 137e 9093 0000 		sts (braking_length)+3,r25
 2532               	.LM249:
 2533 1382 C201      		movw r24,r4
 2534 1384 B101      		movw r22,r2
 2535 1386 20E0      		ldi r18,lo8(0x3f000000)
 2536 1388 30E0      		ldi r19,hi8(0x3f000000)
 2537 138a 40E0      		ldi r20,hlo8(0x3f000000)
 2538 138c 5FE3      		ldi r21,hhi8(0x3f000000)
 2539 138e 0E94 0000 		call __mulsf3
 2540 1392 5B01      		movw r10,r22
 2541 1394 6C01      		movw r12,r24
 2542               	.LM250:
 2543 1396 A801      		movw r20,r16
 2544 1398 9701      		movw r18,r14
 2545 139a 0E94 0000 		call __subsf3
 2546 139e 3B01      		movw r6,r22
 2547 13a0 4C01      		movw r8,r24
 2548 13a2 6093 0000 		sts begin_brake,r22
 2549 13a6 7093 0000 		sts (begin_brake)+1,r23
 2550 13aa 8093 0000 		sts (begin_brake)+2,r24
 2551 13ae 9093 0000 		sts (begin_brake)+3,r25
 2552               	.LM251:
 2553 13b2 C601      		movw r24,r12
 2554 13b4 B501      		movw r22,r10
 2555 13b6 A801      		movw r20,r16
 2556 13b8 9701      		movw r18,r14
 2557 13ba 0E94 0000 		call __addsf3
 2558 13be 6093 0000 		sts end_brake,r22
 2559 13c2 7093 0000 		sts (end_brake)+1,r23
 2560 13c6 8093 0000 		sts (end_brake)+2,r24
 2561 13ca 9093 0000 		sts (end_brake)+3,r25
 2562               	.LM252:
 2563 13ce C401      		movw r24,r8
 2564 13d0 B301      		movw r22,r6
 2565 13d2 20E0      		ldi r18,lo8(0x3f800000)
 2566 13d4 30E0      		ldi r19,hi8(0x3f800000)
 2567 13d6 40E8      		ldi r20,hlo8(0x3f800000)
 2568 13d8 5FE3      		ldi r21,hhi8(0x3f800000)
 2569 13da 0E94 0000 		call __ltsf2
 2570 13de 8823      		tst r24
 2571 13e0 04F4      		brge .L176
 2572 13e2 80E0      		ldi r24,lo8(0x3f800000)
 2573 13e4 90E0      		ldi r25,hi8(0x3f800000)
 2574 13e6 A0E8      		ldi r26,hlo8(0x3f800000)
 2575 13e8 BFE3      		ldi r27,hhi8(0x3f800000)
 2576 13ea 8093 0000 		sts begin_brake,r24
 2577 13ee 9093 0000 		sts (begin_brake)+1,r25
 2578 13f2 A093 0000 		sts (begin_brake)+2,r26
 2579 13f6 B093 0000 		sts (begin_brake)+3,r27
 2580               	.L176:
 2581               	.LM253:
 2582 13fa 80E0      		ldi r24,lo8(0x0)
 2583 13fc 90E0      		ldi r25,hi8(0x0)
 2584 13fe A0E0      		ldi r26,hlo8(0x0)
 2585 1400 B0E0      		ldi r27,hhi8(0x0)
 2586 1402 8093 0000 		sts power_kill_part1,r24
 2587 1406 9093 0000 		sts (power_kill_part1)+1,r25
 2588 140a A093 0000 		sts (power_kill_part1)+2,r26
 2589 140e B093 0000 		sts (power_kill_part1)+3,r27
 2590               	.LM254:
 2591 1412 2092 0000 		sts power_kill_part2,r2
 2592 1416 3092 0000 		sts (power_kill_part2)+1,r3
 2593 141a 4092 0000 		sts (power_kill_part2)+2,r4
 2594 141e 5092 0000 		sts (power_kill_part2)+3,r5
 2595               	.L174:
 2596               	.LM255:
 2597 1422 6981      		ldd r22,Y+1
 2598 1424 7A81      		ldd r23,Y+2
 2599 1426 8B81      		ldd r24,Y+3
 2600 1428 9C81      		ldd r25,Y+4
 2601 142a 20E0      		ldi r18,lo8(0x42480000)
 2602 142c 30E0      		ldi r19,hi8(0x42480000)
 2603 142e 48E4      		ldi r20,hlo8(0x42480000)
 2604 1430 52E4      		ldi r21,hhi8(0x42480000)
 2605 1432 0E94 0000 		call __lesf2
 2606 1436 1816      		cp __zero_reg__,r24
 2607 1438 04F4      		brge .+2
 2608 143a 00C0      		rjmp .L178
 2609               	.LM256:
 2610 143c 80E0      		ldi r24,lo8(0x3f800000)
 2611 143e 90E0      		ldi r25,hi8(0x3f800000)
 2612 1440 A0E8      		ldi r26,hlo8(0x3f800000)
 2613 1442 BFE3      		ldi r27,hhi8(0x3f800000)
 2614 1444 8093 0000 		sts begin_brake,r24
 2615 1448 9093 0000 		sts (begin_brake)+1,r25
 2616 144c A093 0000 		sts (begin_brake)+2,r26
 2617 1450 B093 0000 		sts (begin_brake)+3,r27
 2618               	.LM257:
 2619 1454 E090 0000 		lds r14,half_spin_time
 2620 1458 F090 0000 		lds r15,(half_spin_time)+1
 2621 145c 0091 0000 		lds r16,(half_spin_time)+2
 2622 1460 1091 0000 		lds r17,(half_spin_time)+3
 2623 1464 E092 0000 		sts end_brake,r14
 2624 1468 F092 0000 		sts (end_brake)+1,r15
 2625 146c 0093 0000 		sts (end_brake)+2,r16
 2626 1470 1093 0000 		sts (end_brake)+3,r17
 2627               	.LM258:
 2628 1474 60E0      		ldi r22,lo8(0x42480000)
 2629 1476 70E0      		ldi r23,hi8(0x42480000)
 2630 1478 88E4      		ldi r24,hlo8(0x42480000)
 2631 147a 92E4      		ldi r25,hhi8(0x42480000)
 2632 147c 2981      		ldd r18,Y+1
 2633 147e 3A81      		ldd r19,Y+2
 2634 1480 4B81      		ldd r20,Y+3
 2635 1482 5C81      		ldd r21,Y+4
 2636 1484 0E94 0000 		call __subsf3
 2637 1488 A801      		movw r20,r16
 2638 148a 9701      		movw r18,r14
 2639 148c 0E94 0000 		call __mulsf3
 2640               	.LM259:
 2641 1490 20E0      		ldi r18,lo8(0x43160000)
 2642 1492 30E0      		ldi r19,hi8(0x43160000)
 2643 1494 46E1      		ldi r20,hlo8(0x43160000)
 2644 1496 53E4      		ldi r21,hhi8(0x43160000)
 2645 1498 0E94 0000 		call __divsf3
 2646 149c 9B01      		movw r18,r22
 2647 149e AC01      		movw r20,r24
 2648 14a0 6093 0000 		sts power_kill_length,r22
 2649 14a4 7093 0000 		sts (power_kill_length)+1,r23
 2650 14a8 8093 0000 		sts (power_kill_length)+2,r24
 2651 14ac 9093 0000 		sts (power_kill_length)+3,r25
 2652               	.LM260:
 2653 14b0 6093 0000 		sts power_kill_part1,r22
 2654 14b4 7093 0000 		sts (power_kill_part1)+1,r23
 2655 14b8 8093 0000 		sts (power_kill_part1)+2,r24
 2656 14bc 9093 0000 		sts (power_kill_part1)+3,r25
 2657               	.LM261:
 2658 14c0 C801      		movw r24,r16
 2659 14c2 B701      		movw r22,r14
 2660 14c4 0E94 0000 		call __subsf3
 2661 14c8 6093 0000 		sts power_kill_part2,r22
 2662 14cc 7093 0000 		sts (power_kill_part2)+1,r23
 2663 14d0 8093 0000 		sts (power_kill_part2)+2,r24
 2664 14d4 9093 0000 		sts (power_kill_part2)+3,r25
 2665               	.L178:
 2666               	.LM262:
 2667 14d8 8091 0000 		lds r24,full_power_spin
 2668 14dc 9091 0000 		lds r25,(full_power_spin)+1
 2669 14e0 0197      		sbiw r24,1
 2670 14e2 01F4      		brne .L180
 2671               	.LM263:
 2672 14e4 80E0      		ldi r24,lo8(0x3f800000)
 2673 14e6 90E0      		ldi r25,hi8(0x3f800000)
 2674 14e8 A0E8      		ldi r26,hlo8(0x3f800000)
 2675 14ea BFE3      		ldi r27,hhi8(0x3f800000)
 2676 14ec 8093 0000 		sts end_brake,r24
 2677 14f0 9093 0000 		sts (end_brake)+1,r25
 2678 14f4 A093 0000 		sts (end_brake)+2,r26
 2679 14f8 B093 0000 		sts (end_brake)+3,r27
 2680               	.LM264:
 2681 14fc 80E0      		ldi r24,lo8(0x0)
 2682 14fe 90E0      		ldi r25,hi8(0x0)
 2683 1500 A0E0      		ldi r26,hlo8(0x0)
 2684 1502 B0E0      		ldi r27,hhi8(0x0)
 2685 1504 8093 0000 		sts begin_brake,r24
 2686 1508 9093 0000 		sts (begin_brake)+1,r25
 2687 150c A093 0000 		sts (begin_brake)+2,r26
 2688 1510 B093 0000 		sts (begin_brake)+3,r27
 2689               	.LM265:
 2690 1514 8093 0000 		sts power_kill_part1,r24
 2691 1518 9093 0000 		sts (power_kill_part1)+1,r25
 2692 151c A093 0000 		sts (power_kill_part1)+2,r26
 2693 1520 B093 0000 		sts (power_kill_part1)+3,r27
 2694               	.LM266:
 2695 1524 8091 0000 		lds r24,half_spin_time
 2696 1528 9091 0000 		lds r25,(half_spin_time)+1
 2697 152c A091 0000 		lds r26,(half_spin_time)+2
 2698 1530 B091 0000 		lds r27,(half_spin_time)+3
 2699 1534 8093 0000 		sts power_kill_part2,r24
 2700 1538 9093 0000 		sts (power_kill_part2)+1,r25
 2701 153c A093 0000 		sts (power_kill_part2)+2,r26
 2702 1540 B093 0000 		sts (power_kill_part2)+3,r27
 2703               	.L180:
 2704               	.LM267:
 2705 1544 AD81      		ldd r26,Y+5
 2706 1546 BE81      		ldd r27,Y+6
 2707 1548 1197      		sbiw r26,1
 2708 154a 01F4      		brne .L181
 2709 154c 0E94 0000 		call config_mode
 2710               	.L181:
 2711               	.LM268:
 2712 1550 6091 0000 		lds r22,led_on
 2713 1554 7091 0000 		lds r23,(led_on)+1
 2714 1558 8091 0000 		lds r24,(led_on)+2
 2715 155c 9091 0000 		lds r25,(led_on)+3
 2716 1560 20E0      		ldi r18,lo8(0x439c4000)
 2717 1562 30E4      		ldi r19,hi8(0x439c4000)
 2718 1564 4CE9      		ldi r20,hlo8(0x439c4000)
 2719 1566 53E4      		ldi r21,hhi8(0x439c4000)
 2720 1568 0E94 0000 		call __mulsf3
 2721 156c 6093 0000 		sts led_on,r22
 2722 1570 7093 0000 		sts (led_on)+1,r23
 2723 1574 8093 0000 		sts (led_on)+2,r24
 2724 1578 9093 0000 		sts (led_on)+3,r25
 2725               	.LM269:
 2726 157c 6091 0000 		lds r22,led_off
 2727 1580 7091 0000 		lds r23,(led_off)+1
 2728 1584 8091 0000 		lds r24,(led_off)+2
 2729 1588 9091 0000 		lds r25,(led_off)+3
 2730 158c 20E0      		ldi r18,lo8(0x439c4000)
 2731 158e 30E4      		ldi r19,hi8(0x439c4000)
 2732 1590 4CE9      		ldi r20,hlo8(0x439c4000)
 2733 1592 53E4      		ldi r21,hhi8(0x439c4000)
 2734 1594 0E94 0000 		call __mulsf3
 2735 1598 6093 0000 		sts led_off,r22
 2736 159c 7093 0000 		sts (led_off)+1,r23
 2737 15a0 8093 0000 		sts (led_off)+2,r24
 2738 15a4 9093 0000 		sts (led_off)+3,r25
 2739               	.LM270:
 2740 15a8 6091 0000 		lds r22,half_spin_time
 2741 15ac 7091 0000 		lds r23,(half_spin_time)+1
 2742 15b0 8091 0000 		lds r24,(half_spin_time)+2
 2743 15b4 9091 0000 		lds r25,(half_spin_time)+3
 2744 15b8 20E0      		ldi r18,lo8(0x439c4000)
 2745 15ba 30E4      		ldi r19,hi8(0x439c4000)
 2746 15bc 4CE9      		ldi r20,hlo8(0x439c4000)
 2747 15be 53E4      		ldi r21,hhi8(0x439c4000)
 2748 15c0 0E94 0000 		call __mulsf3
 2749 15c4 6093 0000 		sts half_spin_time,r22
 2750 15c8 7093 0000 		sts (half_spin_time)+1,r23
 2751 15cc 8093 0000 		sts (half_spin_time)+2,r24
 2752 15d0 9093 0000 		sts (half_spin_time)+3,r25
 2753               	.LM271:
 2754 15d4 6091 0000 		lds r22,power_kill_part1
 2755 15d8 7091 0000 		lds r23,(power_kill_part1)+1
 2756 15dc 8091 0000 		lds r24,(power_kill_part1)+2
 2757 15e0 9091 0000 		lds r25,(power_kill_part1)+3
 2758 15e4 20E0      		ldi r18,lo8(0x439c4000)
 2759 15e6 30E4      		ldi r19,hi8(0x439c4000)
 2760 15e8 4CE9      		ldi r20,hlo8(0x439c4000)
 2761 15ea 53E4      		ldi r21,hhi8(0x439c4000)
 2762 15ec 0E94 0000 		call __mulsf3
 2763 15f0 6093 0000 		sts power_kill_part1,r22
 2764 15f4 7093 0000 		sts (power_kill_part1)+1,r23
 2765 15f8 8093 0000 		sts (power_kill_part1)+2,r24
 2766 15fc 9093 0000 		sts (power_kill_part1)+3,r25
 2767               	.LM272:
 2768 1600 6091 0000 		lds r22,power_kill_part2
 2769 1604 7091 0000 		lds r23,(power_kill_part2)+1
 2770 1608 8091 0000 		lds r24,(power_kill_part2)+2
 2771 160c 9091 0000 		lds r25,(power_kill_part2)+3
 2772 1610 20E0      		ldi r18,lo8(0x439c4000)
 2773 1612 30E4      		ldi r19,hi8(0x439c4000)
 2774 1614 4CE9      		ldi r20,hlo8(0x439c4000)
 2775 1616 53E4      		ldi r21,hhi8(0x439c4000)
 2776 1618 0E94 0000 		call __mulsf3
 2777 161c 6093 0000 		sts power_kill_part2,r22
 2778 1620 7093 0000 		sts (power_kill_part2)+1,r23
 2779 1624 8093 0000 		sts (power_kill_part2)+2,r24
 2780 1628 9093 0000 		sts (power_kill_part2)+3,r25
 2781               	.LM273:
 2782 162c 6091 0000 		lds r22,begin_brake
 2783 1630 7091 0000 		lds r23,(begin_brake)+1
 2784 1634 8091 0000 		lds r24,(begin_brake)+2
 2785 1638 9091 0000 		lds r25,(begin_brake)+3
 2786 163c 20E0      		ldi r18,lo8(0x439c4000)
 2787 163e 30E4      		ldi r19,hi8(0x439c4000)
 2788 1640 4CE9      		ldi r20,hlo8(0x439c4000)
 2789 1642 53E4      		ldi r21,hhi8(0x439c4000)
 2790 1644 0E94 0000 		call __mulsf3
 2791 1648 6093 0000 		sts begin_brake,r22
 2792 164c 7093 0000 		sts (begin_brake)+1,r23
 2793 1650 8093 0000 		sts (begin_brake)+2,r24
 2794 1654 9093 0000 		sts (begin_brake)+3,r25
 2795               	.LM274:
 2796 1658 6091 0000 		lds r22,end_brake
 2797 165c 7091 0000 		lds r23,(end_brake)+1
 2798 1660 8091 0000 		lds r24,(end_brake)+2
 2799 1664 9091 0000 		lds r25,(end_brake)+3
 2800 1668 20E0      		ldi r18,lo8(0x439c4000)
 2801 166a 30E4      		ldi r19,hi8(0x439c4000)
 2802 166c 4CE9      		ldi r20,hlo8(0x439c4000)
 2803 166e 53E4      		ldi r21,hhi8(0x439c4000)
 2804 1670 0E94 0000 		call __mulsf3
 2805 1674 6093 0000 		sts end_brake,r22
 2806 1678 7093 0000 		sts (end_brake)+1,r23
 2807 167c 8093 0000 		sts (end_brake)+2,r24
 2808 1680 9093 0000 		sts (end_brake)+3,r25
 2809               	.LM275:
 2810               	/* #APP */
 2811               	 ;  996 "main.c" 1
 2812 1684 7894      		sei
 2813               	 ;  0 "" 2
 2814               	/* epilogue start */
 2815               	.LM276:
 2816               	/* #NOAPP */
 2817 1686 2696      		adiw r28,6
 2818 1688 0FB6      		in __tmp_reg__,__SREG__
 2819 168a F894      		cli
 2820 168c DEBF      		out __SP_H__,r29
 2821 168e 0FBE      		out __SREG__,__tmp_reg__
 2822 1690 CDBF      		out __SP_L__,r28
 2823 1692 CF91      		pop r28
 2824 1694 DF91      		pop r29
 2825 1696 1F91      		pop r17
 2826 1698 0F91      		pop r16
 2827 169a FF90      		pop r15
 2828 169c EF90      		pop r14
 2829 169e DF90      		pop r13
 2830 16a0 CF90      		pop r12
 2831 16a2 BF90      		pop r11
 2832 16a4 AF90      		pop r10
 2833 16a6 9F90      		pop r9
 2834 16a8 8F90      		pop r8
 2835 16aa 7F90      		pop r7
 2836 16ac 6F90      		pop r6
 2837 16ae 5F90      		pop r5
 2838 16b0 4F90      		pop r4
 2839 16b2 3F90      		pop r3
 2840 16b4 2F90      		pop r2
 2841 16b6 0895      		ret
 2842               	.LFE23:
 2844               	.global	save_config
 2846               	save_config:
 2847               	.LFB19:
 2848               	.LM277:
 2849 16b8 6F92      		push r6
 2850 16ba 7F92      		push r7
 2851 16bc 8F92      		push r8
 2852 16be 9F92      		push r9
 2853 16c0 AF92      		push r10
 2854 16c2 BF92      		push r11
 2855 16c4 CF92      		push r12
 2856 16c6 DF92      		push r13
 2857 16c8 EF92      		push r14
 2858 16ca FF92      		push r15
 2859 16cc 0F93      		push r16
 2860 16ce 1F93      		push r17
 2861               	/* prologue: function */
 2862               	/* frame size = 0 */
 2863               	.LM278:
 2864 16d0 6091 0000 		lds r22,tracking_comp
 2865 16d4 7091 0000 		lds r23,(tracking_comp)+1
 2866 16d8 8091 0000 		lds r24,(tracking_comp)+2
 2867 16dc 9091 0000 		lds r25,(tracking_comp)+3
 2868 16e0 20E0      		ldi r18,lo8(0x447a0000)
 2869 16e2 30E0      		ldi r19,hi8(0x447a0000)
 2870 16e4 4AE7      		ldi r20,hlo8(0x447a0000)
 2871 16e6 54E4      		ldi r21,hhi8(0x447a0000)
 2872 16e8 0E94 0000 		call __mulsf3
 2873 16ec 7B01      		movw r14,r22
 2874 16ee 8C01      		movw r16,r24
 2875 16f0 0E94 0000 		call __fixsfsi
 2876 16f4 5B01      		movw r10,r22
 2877 16f6 6C01      		movw r12,r24
 2878               	.LM279:
 2879 16f8 0E94 0000 		call __floatsisf
 2880 16fc 9B01      		movw r18,r22
 2881 16fe AC01      		movw r20,r24
 2882 1700 C801      		movw r24,r16
 2883 1702 B701      		movw r22,r14
 2884 1704 0E94 0000 		call __subsf3
 2885 1708 3B01      		movw r6,r22
 2886 170a 4C01      		movw r8,r24
 2887               	.LBB228:
 2888               	.LBB229:
 2889               	.LM280:
 2890 170c 00E0      		ldi r16,lo8(gs(eeprom_write_byte))
 2891 170e 10E0      		ldi r17,hi8(gs(eeprom_write_byte))
 2892 1710 80E0      		ldi r24,lo8(saved_data_valid)
 2893 1712 90E0      		ldi r25,hi8(saved_data_valid)
 2894 1714 60E8      		ldi r22,lo8(128)
 2895 1716 70E0      		ldi r23,hi8(128)
 2896 1718 A801      		movw r20,r16
 2897 171a 0E94 0000 		call __eewr_word
 2898               	.LBE229:
 2899               	.LBE228:
 2900               	.LBB230:
 2901               	.LBB231:
 2902 171e 6091 0000 		lds r22,led_adjust
 2903 1722 7091 0000 		lds r23,(led_adjust)+1
 2904 1726 8091 0000 		lds r24,(led_adjust)+2
 2905 172a 9091 0000 		lds r25,(led_adjust)+3
 2906 172e 0E94 0000 		call __fixunssfsi
 2907 1732 9B01      		movw r18,r22
 2908 1734 AC01      		movw r20,r24
 2909 1736 80E0      		ldi r24,lo8(led_adjust_save)
 2910 1738 90E0      		ldi r25,hi8(led_adjust_save)
 2911 173a B901      		movw r22,r18
 2912 173c A801      		movw r20,r16
 2913 173e 0E94 0000 		call __eewr_word
 2914               	.LBE231:
 2915               	.LBE230:
 2916               	.LBB232:
 2917               	.LBB233:
 2918 1742 80E0      		ldi r24,lo8(tracking_comp_save_word1)
 2919 1744 90E0      		ldi r25,hi8(tracking_comp_save_word1)
 2920 1746 B501      		movw r22,r10
 2921 1748 A801      		movw r20,r16
 2922 174a 0E94 0000 		call __eewr_word
 2923               	.LBE233:
 2924               	.LBE232:
 2925               	.LBB234:
 2926               	.LBB235:
 2927 174e C401      		movw r24,r8
 2928 1750 B301      		movw r22,r6
 2929 1752 20E0      		ldi r18,lo8(0x461c4000)
 2930 1754 30E4      		ldi r19,hi8(0x461c4000)
 2931 1756 4CE1      		ldi r20,hlo8(0x461c4000)
 2932 1758 56E4      		ldi r21,hhi8(0x461c4000)
 2933 175a 0E94 0000 		call __mulsf3
 2934 175e 0E94 0000 		call __fixunssfsi
 2935 1762 9B01      		movw r18,r22
 2936 1764 AC01      		movw r20,r24
 2937 1766 80E0      		ldi r24,lo8(tracking_comp_save_word2)
 2938 1768 90E0      		ldi r25,hi8(tracking_comp_save_word2)
 2939 176a B901      		movw r22,r18
 2940 176c A801      		movw r20,r16
 2941 176e 0E94 0000 		call __eewr_word
 2942               	.LBE235:
 2943               	.LBE234:
 2944               	.LBB236:
 2945               	.LBB237:
 2946 1772 6091 0000 		lds r22,heading_center
 2947 1776 7091 0000 		lds r23,(heading_center)+1
 2948 177a 80E0      		ldi r24,lo8(heading_center_save)
 2949 177c 90E0      		ldi r25,hi8(heading_center_save)
 2950 177e A801      		movw r20,r16
 2951 1780 0E94 0000 		call __eewr_word
 2952               	.LBE237:
 2953               	.LBE236:
 2954               	.LBB238:
 2955               	.LBB239:
 2956 1784 6091 0000 		lds r22,base_accel
 2957 1788 7091 0000 		lds r23,(base_accel)+1
 2958 178c 80E0      		ldi r24,lo8(base_accel_save)
 2959 178e 90E0      		ldi r25,hi8(base_accel_save)
 2960 1790 A801      		movw r20,r16
 2961 1792 0E94 0000 		call __eewr_word
 2962               	/* epilogue start */
 2963               	.LBE239:
 2964               	.LBE238:
 2965               	.LM281:
 2966 1796 1F91      		pop r17
 2967 1798 0F91      		pop r16
 2968 179a FF90      		pop r15
 2969 179c EF90      		pop r14
 2970 179e DF90      		pop r13
 2971 17a0 CF90      		pop r12
 2972 17a2 BF90      		pop r11
 2973 17a4 AF90      		pop r10
 2974 17a6 9F90      		pop r9
 2975 17a8 8F90      		pop r8
 2976 17aa 7F90      		pop r7
 2977 17ac 6F90      		pop r6
 2978 17ae 0895      		ret
 2979               	.LFE19:
 2981               	.global	safety_and_idle
 2983               	safety_and_idle:
 2984               	.LFB17:
 2985               	.LM282:
 2986 17b0 2F92      		push r2
 2987 17b2 3F92      		push r3
 2988 17b4 4F92      		push r4
 2989 17b6 5F92      		push r5
 2990 17b8 6F92      		push r6
 2991 17ba 7F92      		push r7
 2992 17bc 8F92      		push r8
 2993 17be 9F92      		push r9
 2994 17c0 AF92      		push r10
 2995 17c2 BF92      		push r11
 2996 17c4 CF92      		push r12
 2997 17c6 DF92      		push r13
 2998 17c8 EF92      		push r14
 2999 17ca FF92      		push r15
 3000 17cc 0F93      		push r16
 3001 17ce 1F93      		push r17
 3002 17d0 CF93      		push r28
 3003 17d2 DF93      		push r29
 3004               	/* prologue: function */
 3005               	/* frame size = 0 */
 3006               	.LM283:
 3007               	/* #APP */
 3008               	 ;  568 "main.c" 1
 3009 17d4 7894      		sei
 3010               	 ;  0 "" 2
 3011               	/* #NOAPP */
 3012               	.LBB240:
 3013               	.LBB241:
 3014               	.LBB242:
 3015               	.LBB243:
 3016               	.LM284:
 3017 17d6 C4EF      		ldi r28,lo8(500)
 3018 17d8 D1E0      		ldi r29,hi8(500)
 3019               	.LBE243:
 3020               	.LBE242:
 3021               	.LBE241:
 3022               	.LBE240:
 3023               	.LBB247:
 3024               	.LBB248:
 3025               	.LBB249:
 3026               	.LBB250:
 3027 17da A0E5      		ldi r26,lo8(-15536)
 3028 17dc 4A2E      		mov r4,r26
 3029 17de A3EC      		ldi r26,hi8(-15536)
 3030 17e0 5A2E      		mov r5,r26
 3031               	.LBE250:
 3032               	.LBE249:
 3033               	.LBE248:
 3034               	.LBE247:
 3035               	.LM285:
 3036 17e2 F1E0      		ldi r31,lo8(1)
 3037 17e4 2F2E      		mov r2,r31
 3038 17e6 312C      		mov r3,__zero_reg__
 3039 17e8 00C0      		rjmp .L244
 3040               	.LVL27:
 3041               	.L228:
 3042               	.LBB254:
 3043               	.LBB255:
 3044               	.LM286:
 3045 17ea 5A98      		cbi 43-32,2
 3046               	.LM287:
 3047 17ec 5C98      		cbi 43-32,4
 3048               	.LBE255:
 3049               	.LBE254:
 3050               	.LM288:
 3051 17ee 8091 0000 		lds r24,throttle
 3052 17f2 9091 0000 		lds r25,(throttle)+1
 3053 17f6 A091 0000 		lds r26,(throttle)+2
 3054 17fa B091 0000 		lds r27,(throttle)+3
 3055 17fe 8E15      		cp r24,r14
 3056 1800 9F05      		cpc r25,r15
 3057 1802 A007      		cpc r26,r16
 3058 1804 B107      		cpc r27,r17
 3059 1806 04F0      		brlt .L200
 3060 1808 2091 0000 		lds r18,throttle
 3061 180c 3091 0000 		lds r19,(throttle)+1
 3062 1810 4091 0000 		lds r20,(throttle)+2
 3063 1814 5091 0000 		lds r21,(throttle)+3
 3064 1818 8091 0000 		lds r24,throttle_high
 3065 181c 9091 0000 		lds r25,(throttle_high)+1
 3066 1820 8C59      		subi r24,lo8(-(100))
 3067 1822 9F4F      		sbci r25,hi8(-(100))
 3068 1824 AA27      		clr r26
 3069 1826 97FD      		sbrc r25,7
 3070 1828 A095      		com r26
 3071 182a BA2F      		mov r27,r26
 3072 182c 8217      		cp r24,r18
 3073 182e 9307      		cpc r25,r19
 3074 1830 A407      		cpc r26,r20
 3075 1832 B507      		cpc r27,r21
 3076 1834 04F4      		brge .L201
 3077               	.L200:
 3078 1836 1092 0000 		sts (throttle_up_count)+1,__zero_reg__
 3079 183a 1092 0000 		sts throttle_up_count,__zero_reg__
 3080               	.L201:
 3081               	.LM289:
 3082 183e 8091 0000 		lds r24,throttle
 3083 1842 9091 0000 		lds r25,(throttle)+1
 3084 1846 A091 0000 		lds r26,(throttle)+2
 3085 184a B091 0000 		lds r27,(throttle)+3
 3086 184e E816      		cp r14,r24
 3087 1850 F906      		cpc r15,r25
 3088 1852 0A07      		cpc r16,r26
 3089 1854 1B07      		cpc r17,r27
 3090 1856 04F4      		brge .L202
 3091 1858 2091 0000 		lds r18,throttle
 3092 185c 3091 0000 		lds r19,(throttle)+1
 3093 1860 4091 0000 		lds r20,(throttle)+2
 3094 1864 5091 0000 		lds r21,(throttle)+3
 3095 1868 8091 0000 		lds r24,throttle_high
 3096 186c 9091 0000 		lds r25,(throttle_high)+1
 3097 1870 8C59      		subi r24,lo8(-(100))
 3098 1872 9F4F      		sbci r25,hi8(-(100))
 3099 1874 AA27      		clr r26
 3100 1876 97FD      		sbrc r25,7
 3101 1878 A095      		com r26
 3102 187a BA2F      		mov r27,r26
 3103 187c 2817      		cp r18,r24
 3104 187e 3907      		cpc r19,r25
 3105 1880 4A07      		cpc r20,r26
 3106 1882 5B07      		cpc r21,r27
 3107 1884 04F4      		brge .L202
 3108 1886 8091 0000 		lds r24,throttle_up_count
 3109 188a 9091 0000 		lds r25,(throttle_up_count)+1
 3110 188e 0196      		adiw r24,1
 3111 1890 9093 0000 		sts (throttle_up_count)+1,r25
 3112 1894 8093 0000 		sts throttle_up_count,r24
 3113               	.L202:
 3114               	.LM290:
 3115 1898 2091 0000 		lds r18,leftright
 3116 189c 3091 0000 		lds r19,(leftright)+1
 3117 18a0 4091 0000 		lds r20,(leftright)+2
 3118 18a4 5091 0000 		lds r21,(leftright)+3
 3119 18a8 6091 0000 		lds r22,heading_center
 3120 18ac 7091 0000 		lds r23,(heading_center)+1
 3121 18b0 8091 0000 		lds r24,heading_leftthresh
 3122 18b4 9091 0000 		lds r25,(heading_leftthresh)+1
 3123 18b8 860F      		add r24,r22
 3124 18ba 971F      		adc r25,r23
 3125 18bc AA27      		clr r26
 3126 18be 97FD      		sbrc r25,7
 3127 18c0 A095      		com r26
 3128 18c2 BA2F      		mov r27,r26
 3129 18c4 8217      		cp r24,r18
 3130 18c6 9307      		cpc r25,r19
 3131 18c8 A407      		cpc r26,r20
 3132 18ca B507      		cpc r27,r21
 3133 18cc 04F4      		brge .L203
 3134 18ce 5D9A      		sbi 43-32,5
 3135 18d0 80ED      		ldi r24,lo8(2000)
 3136 18d2 97E0      		ldi r25,hi8(2000)
 3137               	.LVL28:
 3138               	.L204:
 3139               	.LBB256:
 3140               	.LBB246:
 3141               	.LBB245:
 3142               	.LBB244:
 3143               	.LM291:
 3144 18d4 FE01      		movw r30,r28
 3145               	.LVL29:
 3146               	/* #APP */
 3147               	 ;  105 "c:/winavr-20090313/lib/gcc/../../avr/include/util/delay_basic.h" 1
 3148 18d6 3197      		1: sbiw r30,1
 3149 18d8 01F4      		brne 1b
 3150               	 ;  0 "" 2
 3151               	/* #NOAPP */
 3152               	.LBE244:
 3153               	.LBE245:
 3154               	.LM292:
 3155 18da 0197      		sbiw r24,1
 3156               	.LM293:
 3157 18dc 01F4      		brne .L204
 3158               	.LVL30:
 3159               	.L203:
 3160               	.LBE246:
 3161               	.LBE256:
 3162               	.LM294:
 3163 18de 2091 0000 		lds r18,leftright
 3164 18e2 3091 0000 		lds r19,(leftright)+1
 3165 18e6 4091 0000 		lds r20,(leftright)+2
 3166 18ea 5091 0000 		lds r21,(leftright)+3
 3167 18ee 8091 0000 		lds r24,heading_rightthresh
 3168 18f2 9091 0000 		lds r25,(heading_rightthresh)+1
 3169               	.LVL31:
 3170 18f6 680F      		add r22,r24
 3171 18f8 791F      		adc r23,r25
 3172 18fa CB01      		movw r24,r22
 3173 18fc AA27      		clr r26
 3174 18fe 97FD      		sbrc r25,7
 3175 1900 A095      		com r26
 3176 1902 BA2F      		mov r27,r26
 3177 1904 2817      		cp r18,r24
 3178 1906 3907      		cpc r19,r25
 3179 1908 4A07      		cpc r20,r26
 3180 190a 5B07      		cpc r21,r27
 3181 190c 04F4      		brge .L205
 3182 190e 5D9A      		sbi 43-32,5
 3183 1910 80ED      		ldi r24,lo8(2000)
 3184 1912 97E0      		ldi r25,hi8(2000)
 3185               	.LVL32:
 3186               	.L206:
 3187               	.LBB257:
 3188               	.LBB258:
 3189               	.LBB259:
 3190               	.LBB260:
 3191               	.LM295:
 3192 1914 FE01      		movw r30,r28
 3193               	.LVL33:
 3194               	/* #APP */
 3195               	 ;  105 "c:/winavr-20090313/lib/gcc/../../avr/include/util/delay_basic.h" 1
 3196 1916 3197      		1: sbiw r30,1
 3197 1918 01F4      		brne 1b
 3198               	 ;  0 "" 2
 3199               	/* #NOAPP */
 3200               	.LBE260:
 3201               	.LBE259:
 3202               	.LM296:
 3203 191a 0197      		sbiw r24,1
 3204               	.LM297:
 3205 191c 01F4      		brne .L206
 3206               	.LVL34:
 3207               	.L205:
 3208               	.LBE258:
 3209               	.LBE257:
 3210               	.LM298:
 3211 191e 8BB1      		in r24,43-32
 3212               	.LVL35:
 3213 1920 90E2      		ldi r25,lo8(32)
 3214 1922 8927      		eor r24,r25
 3215 1924 8BB9      		out 43-32,r24
 3216 1926 8CE2      		ldi r24,lo8(300)
 3217 1928 91E0      		ldi r25,hi8(300)
 3218               	.LVL36:
 3219               	.L207:
 3220               	.LBB261:
 3221               	.LBB262:
 3222               	.LBB263:
 3223               	.LBB264:
 3224               	.LM299:
 3225 192a FE01      		movw r30,r28
 3226               	.LVL37:
 3227               	/* #APP */
 3228               	 ;  105 "c:/winavr-20090313/lib/gcc/../../avr/include/util/delay_basic.h" 1
 3229 192c 3197      		1: sbiw r30,1
 3230 192e 01F4      		brne 1b
 3231               	 ;  0 "" 2
 3232               	/* #NOAPP */
 3233               	.LBE264:
 3234               	.LBE263:
 3235               	.LM300:
 3236 1930 0197      		sbiw r24,1
 3237               	.LM301:
 3238 1932 01F4      		brne .L207
 3239               	.LBE262:
 3240               	.LBE261:
 3241               	.LM302:
 3242 1934 8090 0000 		lds r8,in_config_mode
 3243 1938 9090 0000 		lds r9,(in_config_mode)+1
 3244 193c 81E0      		ldi r24,lo8(1)
 3245 193e 8816      		cp r8,r24
 3246 1940 9104      		cpc r9,__zero_reg__
 3247               	.LVL38:
 3248 1942 01F4      		brne .L208
 3249 1944 5D98      		cbi 43-32,5
 3250 1946 80ED      		ldi r24,lo8(2000)
 3251 1948 97E0      		ldi r25,hi8(2000)
 3252               	.LVL39:
 3253               	.L209:
 3254               	.LBB265:
 3255               	.LBB266:
 3256               	.LBB267:
 3257               	.LBB268:
 3258               	.LM303:
 3259 194a FE01      		movw r30,r28
 3260               	.LVL40:
 3261               	/* #APP */
 3262               	 ;  105 "c:/winavr-20090313/lib/gcc/../../avr/include/util/delay_basic.h" 1
 3263 194c 3197      		1: sbiw r30,1
 3264 194e 01F4      		brne 1b
 3265               	 ;  0 "" 2
 3266               	/* #NOAPP */
 3267               	.LBE268:
 3268               	.LBE267:
 3269               	.LM304:
 3270 1950 0197      		sbiw r24,1
 3271               	.LM305:
 3272 1952 01F4      		brne .L209
 3273               	.LVL41:
 3274               	.L208:
 3275               	.LBE266:
 3276               	.LBE265:
 3277               	.LM306:
 3278 1954 2091 0000 		lds r18,forwardback
 3279 1958 3091 0000 		lds r19,(forwardback)+1
 3280 195c 4091 0000 		lds r20,(forwardback)+2
 3281 1960 5091 0000 		lds r21,(forwardback)+3
 3282 1964 6091 0000 		lds r22,forwardback_center
 3283 1968 7091 0000 		lds r23,(forwardback_center)+1
 3284 196c 8091 0000 		lds r24,forwardback_backthresh
 3285 1970 9091 0000 		lds r25,(forwardback_backthresh)+1
 3286               	.LVL42:
 3287 1974 860F      		add r24,r22
 3288 1976 971F      		adc r25,r23
 3289 1978 7C01      		movw r14,r24
 3290 197a 0027      		clr r16
 3291 197c F7FC      		sbrc r15,7
 3292 197e 0095      		com r16
 3293 1980 102F      		mov r17,r16
 3294 1982 E216      		cp r14,r18
 3295 1984 F306      		cpc r15,r19
 3296 1986 0407      		cpc r16,r20
 3297 1988 1507      		cpc r17,r21
 3298 198a 04F4      		brge .L210
 3299 198c 2091 0000 		lds r18,forwardback
 3300 1990 3091 0000 		lds r19,(forwardback)+1
 3301 1994 4091 0000 		lds r20,(forwardback)+2
 3302 1998 5091 0000 		lds r21,(forwardback)+3
 3303 199c 8091 0000 		lds r24,forwardback_forwardthresh
 3304 19a0 9091 0000 		lds r25,(forwardback_forwardthresh)+1
 3305 19a4 680F      		add r22,r24
 3306 19a6 791F      		adc r23,r25
 3307 19a8 5B01      		movw r10,r22
 3308 19aa CC24      		clr r12
 3309 19ac B7FC      		sbrc r11,7
 3310 19ae C094      		com r12
 3311 19b0 DC2C      		mov r13,r12
 3312 19b2 2A15      		cp r18,r10
 3313 19b4 3B05      		cpc r19,r11
 3314 19b6 4C05      		cpc r20,r12
 3315 19b8 5D05      		cpc r21,r13
 3316 19ba 04F4      		brge .L210
 3317               	.LBB269:
 3318               	.LBB253:
 3319               	.LBB252:
 3320               	.LBB251:
 3321               	.LM307:
 3322 19bc C201      		movw r24,r4
 3323               	.LVL43:
 3324               	/* #APP */
 3325               	 ;  105 "c:/winavr-20090313/lib/gcc/../../avr/include/util/delay_basic.h" 1
 3326 19be 0197      		1: sbiw r24,1
 3327 19c0 01F4      		brne 1b
 3328               	 ;  0 "" 2
 3329               	/* #NOAPP */
 3330               	.LBE251:
 3331               	.LBE252:
 3332               	.LBE253:
 3333               	.LBE269:
 3334               	.LM308:
 3335 19c2 8091 0000 		lds r24,forwardback
 3336 19c6 9091 0000 		lds r25,(forwardback)+1
 3337 19ca A091 0000 		lds r26,(forwardback)+2
 3338 19ce B091 0000 		lds r27,(forwardback)+3
 3339               	.LVL44:
 3340 19d2 E816      		cp r14,r24
 3341 19d4 F906      		cpc r15,r25
 3342 19d6 0A07      		cpc r16,r26
 3343 19d8 1B07      		cpc r17,r27
 3344 19da 04F4      		brge .L210
 3345 19dc 8091 0000 		lds r24,forwardback
 3346 19e0 9091 0000 		lds r25,(forwardback)+1
 3347 19e4 A091 0000 		lds r26,(forwardback)+2
 3348 19e8 B091 0000 		lds r27,(forwardback)+3
 3349 19ec 8A15      		cp r24,r10
 3350 19ee 9B05      		cpc r25,r11
 3351 19f0 AC05      		cpc r26,r12
 3352 19f2 BD05      		cpc r27,r13
 3353 19f4 04F4      		brge .L210
 3354               	.LM309:
 3355 19f6 3092 0000 		sts (got_centered_forwardback)+1,r3
 3356 19fa 2092 0000 		sts got_centered_forwardback,r2
 3357               	.L210:
 3358               	.LM310:
 3359 19fe 8091 0000 		lds r24,forwardback
 3360 1a02 9091 0000 		lds r25,(forwardback)+1
 3361 1a06 A091 0000 		lds r26,(forwardback)+2
 3362 1a0a B091 0000 		lds r27,(forwardback)+3
 3363 1a0e 8E15      		cp r24,r14
 3364 1a10 9F05      		cpc r25,r15
 3365 1a12 A007      		cpc r26,r16
 3366 1a14 B107      		cpc r27,r17
 3367 1a16 04F0      		brlt .+2
 3368 1a18 00C0      		rjmp .L211
 3369 1a1a 8091 0000 		lds r24,got_centered_forwardback
 3370 1a1e 9091 0000 		lds r25,(got_centered_forwardback)+1
 3371 1a22 0197      		sbiw r24,1
 3372 1a24 01F0      		breq .+2
 3373 1a26 00C0      		rjmp .L211
 3374 1a28 80E1      		ldi r24,lo8(10000)
 3375 1a2a 97E2      		ldi r25,hi8(10000)
 3376               	.LVL45:
 3377               	.L212:
 3378               	.LBB270:
 3379               	.LBB271:
 3380               	.LBB272:
 3381               	.LBB273:
 3382               	.LM311:
 3383 1a2c FE01      		movw r30,r28
 3384               	.LVL46:
 3385               	/* #APP */
 3386               	 ;  105 "c:/winavr-20090313/lib/gcc/../../avr/include/util/delay_basic.h" 1
 3387 1a2e 3197      		1: sbiw r30,1
 3388 1a30 01F4      		brne 1b
 3389               	 ;  0 "" 2
 3390               	/* #NOAPP */
 3391               	.LBE273:
 3392               	.LBE272:
 3393               	.LM312:
 3394 1a32 0197      		sbiw r24,1
 3395               	.LM313:
 3396 1a34 01F4      		brne .L212
 3397               	.LBE271:
 3398               	.LBE270:
 3399               	.LM314:
 3400 1a36 8091 0000 		lds r24,forwardback
 3401 1a3a 9091 0000 		lds r25,(forwardback)+1
 3402 1a3e A091 0000 		lds r26,(forwardback)+2
 3403 1a42 B091 0000 		lds r27,(forwardback)+3
 3404               	.LVL47:
 3405 1a46 8E15      		cp r24,r14
 3406 1a48 9F05      		cpc r25,r15
 3407 1a4a A007      		cpc r26,r16
 3408 1a4c B107      		cpc r27,r17
 3409 1a4e 04F0      		brlt .+2
 3410 1a50 00C0      		rjmp .L211
 3411               	.LM315:
 3412 1a52 20E0      		ldi r18,lo8(0)
 3413 1a54 30E0      		ldi r19,hi8(0)
 3414 1a56 8928      		or r8,r9
 3415 1a58 01F4      		brne .L213
 3416 1a5a 21E0      		ldi r18,lo8(1)
 3417 1a5c 30E0      		ldi r19,hi8(1)
 3418               	.L213:
 3419 1a5e 3093 0000 		sts (in_config_mode)+1,r19
 3420 1a62 2093 0000 		sts in_config_mode,r18
 3421 1a66 88E9      		ldi r24,lo8(15000)
 3422 1a68 9AE3      		ldi r25,hi8(15000)
 3423               	.LVL48:
 3424               	.L214:
 3425               	.LBB274:
 3426               	.LBB275:
 3427               	.LBB276:
 3428               	.LBB277:
 3429               	.LM316:
 3430 1a6a FE01      		movw r30,r28
 3431               	.LVL49:
 3432               	/* #APP */
 3433               	 ;  105 "c:/winavr-20090313/lib/gcc/../../avr/include/util/delay_basic.h" 1
 3434 1a6c 3197      		1: sbiw r30,1
 3435 1a6e 01F4      		brne 1b
 3436               	 ;  0 "" 2
 3437               	/* #NOAPP */
 3438               	.LBE277:
 3439               	.LBE276:
 3440               	.LM317:
 3441 1a70 0197      		sbiw r24,1
 3442               	.LM318:
 3443 1a72 01F4      		brne .L214
 3444               	.LBE275:
 3445               	.LBE274:
 3446               	.LM319:
 3447               	/* #APP */
 3448               	 ;  623 "main.c" 1
 3449 1a74 F894      		cli
 3450               	 ;  0 "" 2
 3451               	.LM320:
 3452               	/* #NOAPP */
 3453 1a76 2130      		cpi r18,1
 3454 1a78 3105      		cpc r19,__zero_reg__
 3455 1a7a 01F4      		brne .L215
 3456 1a7c 0E94 0000 		call get_config_constants
 3457               	.LVL50:
 3458               	.L215:
 3459               	.LM321:
 3460 1a80 8091 0000 		lds r24,in_config_mode
 3461 1a84 9091 0000 		lds r25,(in_config_mode)+1
 3462               	.LVL51:
 3463 1a88 892B      		or r24,r25
 3464 1a8a 01F4      		brne .L216
 3465 1a8c 0E94 0000 		call save_config
 3466               	.LVL52:
 3467               	.L216:
 3468               	.LM322:
 3469               	/* #APP */
 3470               	 ;  626 "main.c" 1
 3471 1a90 7894      		sei
 3472               	 ;  0 "" 2
 3473               	/* #NOAPP */
 3474 1a92 00C0      		rjmp .L211
 3475               	.LVL53:
 3476               	.L227:
 3477               	.LM323:
 3478 1a94 5D98      		cbi 43-32,5
 3479               	.LM324:
 3480 1a96 E114      		cp r14,__zero_reg__
 3481 1a98 F104      		cpc r15,__zero_reg__
 3482 1a9a 0105      		cpc r16,__zero_reg__
 3483 1a9c 1105      		cpc r17,__zero_reg__
 3484 1a9e 01F4      		brne .L217
 3485 1aa0 20E0      		ldi r18,lo8(0)
 3486 1aa2 30E0      		ldi r19,hi8(0)
 3487               	.LVL54:
 3488               	.L219:
 3489               	.LM325:
 3490 1aa4 5D9A      		sbi 43-32,5
 3491               	.LBB278:
 3492               	.LBB279:
 3493               	.LBB280:
 3494               	.LBB281:
 3495               	.LM326:
 3496 1aa6 88EA      		ldi r24,lo8(25000)
 3497 1aa8 91E6      		ldi r25,hi8(25000)
 3498               	.LVL55:
 3499               	/* #APP */
 3500               	 ;  105 "c:/winavr-20090313/lib/gcc/../../avr/include/util/delay_basic.h" 1
 3501 1aaa 0197      		1: sbiw r24,1
 3502 1aac 01F4      		brne 1b
 3503               	 ;  0 "" 2
 3504               	/* #NOAPP */
 3505               	.LBE281:
 3506               	.LBE280:
 3507               	.LBE279:
 3508               	.LBE278:
 3509               	.LM327:
 3510 1aae 5D98      		cbi 43-32,5
 3511 1ab0 8CE2      		ldi r24,lo8(300)
 3512 1ab2 91E0      		ldi r25,hi8(300)
 3513               	.LVL56:
 3514               	.L218:
 3515               	.LBB282:
 3516               	.LBB283:
 3517               	.LBB284:
 3518               	.LBB285:
 3519               	.LM328:
 3520 1ab4 FE01      		movw r30,r28
 3521               	.LVL57:
 3522               	/* #APP */
 3523               	 ;  105 "c:/winavr-20090313/lib/gcc/../../avr/include/util/delay_basic.h" 1
 3524 1ab6 3197      		1: sbiw r30,1
 3525 1ab8 01F4      		brne 1b
 3526               	 ;  0 "" 2
 3527               	/* #NOAPP */
 3528               	.LBE285:
 3529               	.LBE284:
 3530               	.LM329:
 3531 1aba 0197      		sbiw r24,1
 3532               	.LM330:
 3533 1abc 01F4      		brne .L218
 3534 1abe 2F5F      		subi r18,lo8(-(1))
 3535 1ac0 3F4F      		sbci r19,hi8(-(1))
 3536               	.LBE283:
 3537               	.LBE282:
 3538               	.LM331:
 3539 1ac2 2F30      		cpi r18,15
 3540 1ac4 3105      		cpc r19,__zero_reg__
 3541 1ac6 01F4      		brne .L219
 3542               	.LVL58:
 3543               	.L217:
 3544 1ac8 80E4      		ldi r24,lo8(8000)
 3545 1aca 9FE1      		ldi r25,hi8(8000)
 3546               	.LVL59:
 3547               	.L220:
 3548               	.LBB286:
 3549               	.LBB287:
 3550               	.LBB288:
 3551               	.LBB289:
 3552               	.LM332:
 3553 1acc FE01      		movw r30,r28
 3554               	.LVL60:
 3555               	/* #APP */
 3556               	 ;  105 "c:/winavr-20090313/lib/gcc/../../avr/include/util/delay_basic.h" 1
 3557 1ace 3197      		1: sbiw r30,1
 3558 1ad0 01F4      		brne 1b
 3559               	 ;  0 "" 2
 3560               	/* #NOAPP */
 3561               	.LBE289:
 3562               	.LBE288:
 3563               	.LM333:
 3564 1ad2 0197      		sbiw r24,1
 3565               	.LM334:
 3566 1ad4 01F4      		brne .L220
 3567 1ad6 21E3      		ldi r18,lo8(49)
 3568 1ad8 30E0      		ldi r19,hi8(49)
 3569 1ada 40E0      		ldi r20,hlo8(49)
 3570 1adc 50E0      		ldi r21,hhi8(49)
 3571 1ade 00C0      		rjmp .L221
 3572               	.LVL61:
 3573               	.L246:
 3574               	.LM335:
 3575 1ae0 2C59      		subi r18,lo8(-(100))
 3576 1ae2 3F4F      		sbci r19,hi8(-(100))
 3577 1ae4 4F4F      		sbci r20,hlo8(-(100))
 3578 1ae6 5F4F      		sbci r21,hhi8(-(100))
 3579               	.LBE287:
 3580               	.LBE286:
 3581               	.LM336:
 3582 1ae8 5D9A      		sbi 43-32,5
 3583 1aea 84EF      		ldi r24,lo8(500)
 3584 1aec 91E0      		ldi r25,hi8(500)
 3585               	.LVL62:
 3586               	.L222:
 3587               	.LBB290:
 3588               	.LBB291:
 3589               	.LBB292:
 3590               	.LBB293:
 3591               	.LM337:
 3592 1aee FE01      		movw r30,r28
 3593               	.LVL63:
 3594               	/* #APP */
 3595               	 ;  105 "c:/winavr-20090313/lib/gcc/../../avr/include/util/delay_basic.h" 1
 3596 1af0 3197      		1: sbiw r30,1
 3597 1af2 01F4      		brne 1b
 3598               	 ;  0 "" 2
 3599               	/* #NOAPP */
 3600               	.LBE293:
 3601               	.LBE292:
 3602               	.LM338:
 3603 1af4 0197      		sbiw r24,1
 3604               	.LM339:
 3605 1af6 01F4      		brne .L222
 3606               	.LBE291:
 3607               	.LBE290:
 3608               	.LM340:
 3609 1af8 5D98      		cbi 43-32,5
 3610 1afa 80EA      		ldi r24,lo8(4000)
 3611 1afc 9FE0      		ldi r25,hi8(4000)
 3612               	.LVL64:
 3613               	.L223:
 3614               	.LBB294:
 3615               	.LBB295:
 3616               	.LBB296:
 3617               	.LBB297:
 3618               	.LM341:
 3619 1afe FE01      		movw r30,r28
 3620               	.LVL65:
 3621               	/* #APP */
 3622               	 ;  105 "c:/winavr-20090313/lib/gcc/../../avr/include/util/delay_basic.h" 1
 3623 1b00 3197      		1: sbiw r30,1
 3624 1b02 01F4      		brne 1b
 3625               	 ;  0 "" 2
 3626               	/* #NOAPP */
 3627               	.LBE297:
 3628               	.LBE296:
 3629               	.LM342:
 3630 1b04 0197      		sbiw r24,1
 3631               	.LM343:
 3632 1b06 01F4      		brne .L223
 3633               	.LVL66:
 3634               	.L221:
 3635               	.LBE295:
 3636               	.LBE294:
 3637               	.LM344:
 3638 1b08 2E15      		cp r18,r14
 3639 1b0a 3F05      		cpc r19,r15
 3640 1b0c 4007      		cpc r20,r16
 3641 1b0e 5107      		cpc r21,r17
 3642 1b10 04F0      		brlt .+2
 3643 1b12 00C0      		rjmp .L243
 3644 1b14 8091 0000 		lds r24,forwardback
 3645 1b18 9091 0000 		lds r25,(forwardback)+1
 3646 1b1c A091 0000 		lds r26,(forwardback)+2
 3647 1b20 B091 0000 		lds r27,(forwardback)+3
 3648               	.LVL67:
 3649 1b24 6816      		cp r6,r24
 3650 1b26 7906      		cpc r7,r25
 3651 1b28 8A06      		cpc r8,r26
 3652 1b2a 9B06      		cpc r9,r27
 3653 1b2c 04F4      		brge .L243
 3654 1b2e 8091 0000 		lds r24,throttle
 3655 1b32 9091 0000 		lds r25,(throttle)+1
 3656 1b36 A091 0000 		lds r26,(throttle)+2
 3657 1b3a B091 0000 		lds r27,(throttle)+3
 3658 1b3e 8A15      		cp r24,r10
 3659 1b40 9B05      		cpc r25,r11
 3660 1b42 AC05      		cpc r26,r12
 3661 1b44 BD05      		cpc r27,r13
 3662 1b46 04F4      		brge .L243
 3663 1b48 00C0      		rjmp .L246
 3664               	.LVL68:
 3665               	.L211:
 3666               	.LM345:
 3667 1b4a 8091 0000 		lds r24,forwardback_forwardthresh
 3668 1b4e 9091 0000 		lds r25,(forwardback_forwardthresh)+1
 3669 1b52 2091 0000 		lds r18,forwardback_center
 3670 1b56 3091 0000 		lds r19,(forwardback_center)+1
 3671 1b5a 820F      		add r24,r18
 3672 1b5c 931F      		adc r25,r19
 3673 1b5e 3C01      		movw r6,r24
 3674 1b60 8824      		clr r8
 3675 1b62 77FC      		sbrc r7,7
 3676 1b64 8094      		com r8
 3677 1b66 982C      		mov r9,r8
 3678 1b68 8091 0000 		lds r24,throttle_low
 3679 1b6c 9091 0000 		lds r25,(throttle_low)+1
 3680 1b70 5C01      		movw r10,r24
 3681 1b72 CC24      		clr r12
 3682 1b74 B7FC      		sbrc r11,7
 3683 1b76 C094      		com r12
 3684 1b78 DC2C      		mov r13,r12
 3685               	.LM346:
 3686 1b7a E090 0000 		lds r14,max_observed_rpm
 3687 1b7e F090 0000 		lds r15,(max_observed_rpm)+1
 3688 1b82 0091 0000 		lds r16,(max_observed_rpm)+2
 3689 1b86 1091 0000 		lds r17,(max_observed_rpm)+3
 3690 1b8a 2091 0000 		lds r18,x
 3691 1b8e 3091 0000 		lds r19,(x)+1
 3692 1b92 4091 0000 		lds r20,(x)+2
 3693 1b96 5091 0000 		lds r21,(x)+3
 3694               	.LVL69:
 3695               	.L243:
 3696               	.LM347:
 3697 1b9a 8091 0000 		lds r24,forwardback
 3698 1b9e 9091 0000 		lds r25,(forwardback)+1
 3699 1ba2 A091 0000 		lds r26,(forwardback)+2
 3700 1ba6 B091 0000 		lds r27,(forwardback)+3
 3701               	.LVL70:
 3702 1baa 6816      		cp r6,r24
 3703 1bac 7906      		cpc r7,r25
 3704 1bae 8A06      		cpc r8,r26
 3705 1bb0 9B06      		cpc r9,r27
 3706 1bb2 04F4      		brge .L245
 3707               	.L226:
 3708 1bb4 8091 0000 		lds r24,throttle
 3709 1bb8 9091 0000 		lds r25,(throttle)+1
 3710 1bbc A091 0000 		lds r26,(throttle)+2
 3711 1bc0 B091 0000 		lds r27,(throttle)+3
 3712 1bc4 8A15      		cp r24,r10
 3713 1bc6 9B05      		cpc r25,r11
 3714 1bc8 AC05      		cpc r26,r12
 3715 1bca BD05      		cpc r27,r13
 3716 1bcc 04F4      		brge .+2
 3717 1bce 00C0      		rjmp .L227
 3718               	.L245:
 3719 1bd0 2093 0000 		sts x,r18
 3720 1bd4 3093 0000 		sts (x)+1,r19
 3721 1bd8 4093 0000 		sts (x)+2,r20
 3722 1bdc 5093 0000 		sts (x)+3,r21
 3723               	.L244:
 3724               	.LM348:
 3725 1be0 2091 0000 		lds r18,throttle
 3726 1be4 3091 0000 		lds r19,(throttle)+1
 3727 1be8 4091 0000 		lds r20,(throttle)+2
 3728 1bec 5091 0000 		lds r21,(throttle)+3
 3729 1bf0 8091 0000 		lds r24,throttle_low
 3730 1bf4 9091 0000 		lds r25,(throttle_low)+1
 3731 1bf8 7C01      		movw r14,r24
 3732 1bfa 0027      		clr r16
 3733 1bfc F7FC      		sbrc r15,7
 3734 1bfe 0095      		com r16
 3735 1c00 102F      		mov r17,r16
 3736 1c02 2E15      		cp r18,r14
 3737 1c04 3F05      		cpc r19,r15
 3738 1c06 4007      		cpc r20,r16
 3739 1c08 5107      		cpc r21,r17
 3740 1c0a 04F4      		brge .+2
 3741 1c0c 00C0      		rjmp .L228
 3742 1c0e 2091 0000 		lds r18,throttle
 3743 1c12 3091 0000 		lds r19,(throttle)+1
 3744 1c16 4091 0000 		lds r20,(throttle)+2
 3745 1c1a 5091 0000 		lds r21,(throttle)+3
 3746 1c1e 8091 0000 		lds r24,throttle_high
 3747 1c22 9091 0000 		lds r25,(throttle_high)+1
 3748 1c26 8C59      		subi r24,lo8(-(100))
 3749 1c28 9F4F      		sbci r25,hi8(-(100))
 3750 1c2a AA27      		clr r26
 3751 1c2c 97FD      		sbrc r25,7
 3752 1c2e A095      		com r26
 3753 1c30 BA2F      		mov r27,r26
 3754 1c32 8217      		cp r24,r18
 3755 1c34 9307      		cpc r25,r19
 3756 1c36 A407      		cpc r26,r20
 3757 1c38 B507      		cpc r27,r21
 3758 1c3a 04F4      		brge .+2
 3759 1c3c 00C0      		rjmp .L228
 3760 1c3e 8091 0000 		lds r24,rotations_since_throttle_was_set
 3761 1c42 9091 0000 		lds r25,(rotations_since_throttle_was_set)+1
 3762 1c46 0C97      		sbiw r24,12
 3763 1c48 04F0      		brlt .+2
 3764 1c4a 00C0      		rjmp .L228
 3765 1c4c 8091 0000 		lds r24,throttle_up_count
 3766 1c50 9091 0000 		lds r25,(throttle_up_count)+1
 3767 1c54 0497      		sbiw r24,4
 3768 1c56 04F4      		brge .+2
 3769 1c58 00C0      		rjmp .L228
 3770               	/* epilogue start */
 3771               	.LM349:
 3772 1c5a DF91      		pop r29
 3773 1c5c CF91      		pop r28
 3774 1c5e 1F91      		pop r17
 3775 1c60 0F91      		pop r16
 3776 1c62 FF90      		pop r15
 3777 1c64 EF90      		pop r14
 3778 1c66 DF90      		pop r13
 3779 1c68 CF90      		pop r12
 3780 1c6a BF90      		pop r11
 3781 1c6c AF90      		pop r10
 3782 1c6e 9F90      		pop r9
 3783 1c70 8F90      		pop r8
 3784 1c72 7F90      		pop r7
 3785 1c74 6F90      		pop r6
 3786 1c76 5F90      		pop r5
 3787 1c78 4F90      		pop r4
 3788 1c7a 3F90      		pop r3
 3789 1c7c 2F90      		pop r2
 3790 1c7e 0895      		ret
 3791               	.LFE17:
 3793               	.global	load_config
 3795               	load_config:
 3796               	.LFB18:
 3797               	.LM350:
 3798 1c80 AF92      		push r10
 3799 1c82 BF92      		push r11
 3800 1c84 CF92      		push r12
 3801 1c86 DF92      		push r13
 3802 1c88 EF92      		push r14
 3803 1c8a FF92      		push r15
 3804 1c8c 0F93      		push r16
 3805 1c8e 1F93      		push r17
 3806               	/* prologue: function */
 3807               	/* frame size = 0 */
 3808               	.LBB298:
 3809               	.LM351:
 3810 1c90 80E0      		ldi r24,lo8(saved_data_valid)
 3811 1c92 90E0      		ldi r25,hi8(saved_data_valid)
 3812 1c94 60E0      		ldi r22,lo8(gs(eeprom_read_byte))
 3813 1c96 70E0      		ldi r23,hi8(gs(eeprom_read_byte))
 3814 1c98 0E94 0000 		call __eerd_word
 3815               	.LBE298:
 3816               	.LM352:
 3817 1c9c 8038      		cpi r24,128
 3818 1c9e 9105      		cpc r25,__zero_reg__
 3819 1ca0 01F0      		breq .+2
 3820 1ca2 00C0      		rjmp .L249
 3821               	.LBB299:
 3822               	.LM353:
 3823 1ca4 80E0      		ldi r24,lo8(led_adjust_save)
 3824 1ca6 90E0      		ldi r25,hi8(led_adjust_save)
 3825 1ca8 60E0      		ldi r22,lo8(gs(eeprom_read_byte))
 3826 1caa 70E0      		ldi r23,hi8(gs(eeprom_read_byte))
 3827 1cac 0E94 0000 		call __eerd_word
 3828               	.LBE299:
 3829               	.LM354:
 3830 1cb0 A0E0      		ldi r26,lo8(0)
 3831 1cb2 B0E0      		ldi r27,hi8(0)
 3832 1cb4 BC01      		movw r22,r24
 3833 1cb6 CD01      		movw r24,r26
 3834 1cb8 0E94 0000 		call __floatunsisf
 3835 1cbc 6093 0000 		sts led_adjust,r22
 3836 1cc0 7093 0000 		sts (led_adjust)+1,r23
 3837 1cc4 8093 0000 		sts (led_adjust)+2,r24
 3838 1cc8 9093 0000 		sts (led_adjust)+3,r25
 3839               	.LBB300:
 3840               	.LM355:
 3841 1ccc 80E0      		ldi r24,lo8(tracking_comp_save_word1)
 3842 1cce 90E0      		ldi r25,hi8(tracking_comp_save_word1)
 3843 1cd0 60E0      		ldi r22,lo8(gs(eeprom_read_byte))
 3844 1cd2 70E0      		ldi r23,hi8(gs(eeprom_read_byte))
 3845 1cd4 0E94 0000 		call __eerd_word
 3846               	.LBE300:
 3847               	.LM356:
 3848 1cd8 A0E0      		ldi r26,lo8(0)
 3849 1cda B0E0      		ldi r27,hi8(0)
 3850 1cdc BC01      		movw r22,r24
 3851 1cde CD01      		movw r24,r26
 3852 1ce0 0E94 0000 		call __floatunsisf
 3853 1ce4 5B01      		movw r10,r22
 3854 1ce6 6C01      		movw r12,r24
 3855               	.LBB301:
 3856               	.LM357:
 3857 1ce8 80E0      		ldi r24,lo8(tracking_comp_save_word2)
 3858 1cea 90E0      		ldi r25,hi8(tracking_comp_save_word2)
 3859 1cec 60E0      		ldi r22,lo8(gs(eeprom_read_byte))
 3860 1cee 70E0      		ldi r23,hi8(gs(eeprom_read_byte))
 3861 1cf0 0E94 0000 		call __eerd_word
 3862               	.LBE301:
 3863               	.LM358:
 3864 1cf4 A0E0      		ldi r26,lo8(0)
 3865 1cf6 B0E0      		ldi r27,hi8(0)
 3866 1cf8 BC01      		movw r22,r24
 3867 1cfa CD01      		movw r24,r26
 3868 1cfc 0E94 0000 		call __floatunsisf
 3869 1d00 7B01      		movw r14,r22
 3870 1d02 8C01      		movw r16,r24
 3871               	.LBB302:
 3872               	.LM359:
 3873 1d04 80E0      		ldi r24,lo8(heading_center_save)
 3874 1d06 90E0      		ldi r25,hi8(heading_center_save)
 3875 1d08 60E0      		ldi r22,lo8(gs(eeprom_read_byte))
 3876 1d0a 70E0      		ldi r23,hi8(gs(eeprom_read_byte))
 3877 1d0c 0E94 0000 		call __eerd_word
 3878               	.LBE302:
 3879               	.LM360:
 3880 1d10 9093 0000 		sts (heading_center)+1,r25
 3881 1d14 8093 0000 		sts heading_center,r24
 3882               	.LBB303:
 3883               	.LM361:
 3884 1d18 80E0      		ldi r24,lo8(base_accel_save)
 3885 1d1a 90E0      		ldi r25,hi8(base_accel_save)
 3886 1d1c 60E0      		ldi r22,lo8(gs(eeprom_read_byte))
 3887 1d1e 70E0      		ldi r23,hi8(gs(eeprom_read_byte))
 3888 1d20 0E94 0000 		call __eerd_word
 3889               	.LBE303:
 3890               	.LM362:
 3891 1d24 9093 0000 		sts (base_accel)+1,r25
 3892 1d28 8093 0000 		sts base_accel,r24
 3893               	.LM363:
 3894 1d2c C801      		movw r24,r16
 3895 1d2e B701      		movw r22,r14
 3896 1d30 20E0      		ldi r18,lo8(0x447a0000)
 3897 1d32 30E0      		ldi r19,hi8(0x447a0000)
 3898 1d34 4AE7      		ldi r20,hlo8(0x447a0000)
 3899 1d36 54E4      		ldi r21,hhi8(0x447a0000)
 3900 1d38 0E94 0000 		call __divsf3
 3901 1d3c 7B01      		movw r14,r22
 3902 1d3e 8C01      		movw r16,r24
 3903               	.LM364:
 3904 1d40 C601      		movw r24,r12
 3905 1d42 B501      		movw r22,r10
 3906 1d44 20E0      		ldi r18,lo8(0x447a0000)
 3907 1d46 30E0      		ldi r19,hi8(0x447a0000)
 3908 1d48 4AE7      		ldi r20,hlo8(0x447a0000)
 3909 1d4a 54E4      		ldi r21,hhi8(0x447a0000)
 3910 1d4c 0E94 0000 		call __divsf3
 3911 1d50 5B01      		movw r10,r22
 3912 1d52 6C01      		movw r12,r24
 3913 1d54 C801      		movw r24,r16
 3914 1d56 B701      		movw r22,r14
 3915 1d58 20E0      		ldi r18,lo8(0x461c4000)
 3916 1d5a 30E4      		ldi r19,hi8(0x461c4000)
 3917 1d5c 4CE1      		ldi r20,hlo8(0x461c4000)
 3918 1d5e 56E4      		ldi r21,hhi8(0x461c4000)
 3919 1d60 0E94 0000 		call __divsf3
 3920 1d64 9B01      		movw r18,r22
 3921 1d66 AC01      		movw r20,r24
 3922 1d68 C601      		movw r24,r12
 3923 1d6a B501      		movw r22,r10
 3924 1d6c 0E94 0000 		call __addsf3
 3925 1d70 6093 0000 		sts tracking_comp,r22
 3926 1d74 7093 0000 		sts (tracking_comp)+1,r23
 3927 1d78 8093 0000 		sts (tracking_comp)+2,r24
 3928 1d7c 9093 0000 		sts (tracking_comp)+3,r25
 3929               	.L249:
 3930               	/* epilogue start */
 3931               	.LM365:
 3932 1d80 1F91      		pop r17
 3933 1d82 0F91      		pop r16
 3934 1d84 FF90      		pop r15
 3935 1d86 EF90      		pop r14
 3936 1d88 DF90      		pop r13
 3937 1d8a CF90      		pop r12
 3938 1d8c BF90      		pop r11
 3939 1d8e AF90      		pop r10
 3940 1d90 0895      		ret
 3941               	.LFE18:
 3943               	.global	main
 3945               	main:
 3946               	.LFB16:
 3947               	.LM366:
 3948               	/* prologue: function */
 3949               	/* frame size = 0 */
 3950               	.LM367:
 3951 1d92 0E94 0000 		call setup
 3952               	.LM368:
 3953 1d96 0E94 0000 		call load_config
 3954               	.L252:
 3955               	.LM369:
 3956 1d9a 8091 0000 		lds r24,rotations_since_throttle_was_set
 3957 1d9e 9091 0000 		lds r25,(rotations_since_throttle_was_set)+1
 3958 1da2 0196      		adiw r24,1
 3959 1da4 9093 0000 		sts (rotations_since_throttle_was_set)+1,r25
 3960 1da8 8093 0000 		sts rotations_since_throttle_was_set,r24
 3961               	.LM370:
 3962 1dac 8091 0000 		lds r24,rotation_count
 3963 1db0 9091 0000 		lds r25,(rotation_count)+1
 3964 1db4 A091 0000 		lds r26,(rotation_count)+2
 3965 1db8 B091 0000 		lds r27,(rotation_count)+3
 3966 1dbc 0196      		adiw r24,1
 3967 1dbe A11D      		adc r26,__zero_reg__
 3968 1dc0 B11D      		adc r27,__zero_reg__
 3969 1dc2 8093 0000 		sts rotation_count,r24
 3970 1dc6 9093 0000 		sts (rotation_count)+1,r25
 3971 1dca A093 0000 		sts (rotation_count)+2,r26
 3972 1dce B093 0000 		sts (rotation_count)+3,r27
 3973               	.LM371:
 3974 1dd2 0E94 0000 		call safety_and_idle
 3975               	.LM372:
 3976 1dd6 20E0      		ldi r18,lo8(0)
 3977 1dd8 30E0      		ldi r19,hi8(0)
 3978 1dda 8091 0000 		lds r24,alternate_motor_cycle
 3979 1dde 9091 0000 		lds r25,(alternate_motor_cycle)+1
 3980 1de2 892B      		or r24,r25
 3981 1de4 01F4      		brne .L251
 3982 1de6 21E0      		ldi r18,lo8(1)
 3983 1de8 30E0      		ldi r19,hi8(1)
 3984               	.L251:
 3985 1dea 3093 0000 		sts (alternate_motor_cycle)+1,r19
 3986 1dee 2093 0000 		sts alternate_motor_cycle,r18
 3987               	.LM373:
 3988 1df2 1092 0000 		sts led_hold_over,__zero_reg__
 3989 1df6 1092 0000 		sts (led_hold_over)+1,__zero_reg__
 3990 1dfa 1092 0000 		sts (led_hold_over)+2,__zero_reg__
 3991 1dfe 1092 0000 		sts (led_hold_over)+3,__zero_reg__
 3992               	.LM374:
 3993 1e02 0E94 0000 		call main_calculations
 3994               	.LM375:
 3995 1e06 81E0      		ldi r24,lo8(1)
 3996 1e08 90E0      		ldi r25,hi8(1)
 3997 1e0a 0E94 0000 		call do_spin_180
 3998               	.LM376:
 3999 1e0e 8091 8400 		lds r24,132
 4000 1e12 9091 8500 		lds r25,(132)+1
 4001 1e16 A0E0      		ldi r26,lo8(0)
 4002 1e18 B0E0      		ldi r27,hi8(0)
 4003 1e1a 8093 0000 		sts led_hold_over,r24
 4004 1e1e 9093 0000 		sts (led_hold_over)+1,r25
 4005 1e22 A093 0000 		sts (led_hold_over)+2,r26
 4006 1e26 B093 0000 		sts (led_hold_over)+3,r27
 4007               	.LM377:
 4008 1e2a 0E94 0000 		call main_calculations
 4009               	.LM378:
 4010 1e2e 82E0      		ldi r24,lo8(2)
 4011 1e30 90E0      		ldi r25,hi8(2)
 4012 1e32 0E94 0000 		call do_spin_180
 4013 1e36 00C0      		rjmp .L252
 4014               	.LFE16:
 4016               	.global	rotation_count
 4017               	.global	rotation_count
 4018               		.section .bss
 4021               	rotation_count:
 4022 0000 0000 0000 		.skip 4,0
 4023               	.global	throttle_low
 4024               		.data
 4027               	throttle_low:
 4028 0000 8601      		.word	390
 4029               	.global	throttle_high
 4032               	throttle_high:
 4033 0002 2B02      		.word	555
 4034               	.global	forwardback_center
 4037               	forwardback_center:
 4038 0004 DB01      		.word	475
 4039               	.global	forwardback_forwardthresh
 4042               	forwardback_forwardthresh:
 4043 0006 1E00      		.word	30
 4044               	.global	forwardback_backthresh
 4047               	forwardback_backthresh:
 4048 0008 E2FF      		.word	-30
 4049               	.global	heading_center
 4052               	heading_center:
 4053 000a DB01      		.word	475
 4054               	.global	heading_leftthresh
 4057               	heading_leftthresh:
 4058 000c 1400      		.word	20
 4059               	.global	heading_rightthresh
 4062               	heading_rightthresh:
 4063 000e ECFF      		.word	-20
 4064               	.global	min_rpm
 4067               	min_rpm:
 4068 0010 00        		.byte	0
 4069 0011 00        		.byte	0
 4070 0012 96        		.byte	-106
 4071 0013 43        		.byte	67
 4072               	.global	max_allowed_rpm
 4075               	max_allowed_rpm:
 4076 0014 00        		.byte	0
 4077 0015 40        		.byte	64
 4078 0016 9C        		.byte	-100
 4079 0017 45        		.byte	69
 4080               	.global	max_g
 4083               	max_g:
 4084 0018 00        		.byte	0
 4085 0019 00        		.byte	0
 4086 001a 3E        		.byte	62
 4087 001b 43        		.byte	67
 4088               	.global	radius
 4091               	radius:
 4092 001c CD        		.byte	-51
 4093 001d CC        		.byte	-52
 4094 001e AC        		.byte	-84
 4095 001f 40        		.byte	64
 4096               	.global	g_per_adc_increment
 4099               	g_per_adc_increment:
 4100 0020 00        		.byte	0
 4101 0021 00        		.byte	0
 4102 0022 00        		.byte	0
 4103 0023 3F        		.byte	63
 4104               	.global	forward_comp
 4107               	forward_comp:
 4108 0024 00        		.byte	0
 4109 0025 00        		.byte	0
 4110 0026 80        		.byte	-128
 4111 0027 3F        		.byte	63
 4112               	.global	backward_comp
 4115               	backward_comp:
 4116 0028 00        		.byte	0
 4117 0029 00        		.byte	0
 4118 002a 80        		.byte	-128
 4119 002b 3F        		.byte	63
 4120               	.global	tracking_comp
 4123               	tracking_comp:
 4124 002c 00        		.byte	0
 4125 002d 00        		.byte	0
 4126 002e 80        		.byte	-128
 4127 002f 3F        		.byte	63
 4128               	.global	led_adjust
 4131               	led_adjust:
 4132 0030 00        		.byte	0
 4133 0031 00        		.byte	0
 4134 0032 7C        		.byte	124
 4135 0033 42        		.byte	66
 4136               	.global	base_accel
 4139               	base_accel:
 4140 0034 F201      		.word	498
 4141               	.global	turn_speed
 4144               	turn_speed:
 4145 0036 FA        		.byte	-6
 4146 0037 ED        		.byte	-19
 4147 0038 6B        		.byte	107
 4148 0039 3A        		.byte	58
 4149               	.global	alternate_motor_cycle
 4150               	.global	alternate_motor_cycle
 4151               		.section .bss
 4154               	alternate_motor_cycle:
 4155 0004 0000      		.skip 2,0
 4156               	.global	got_centered_forwardback
 4157               	.global	got_centered_forwardback
 4160               	got_centered_forwardback:
 4161 0006 0000      		.skip 2,0
 4162               	.global	rotations_since_throttle_was_set
 4163               	.global	rotations_since_throttle_was_set
 4166               	rotations_since_throttle_was_set:
 4167 0008 0000      		.skip 2,0
 4168               	.global	throttle_up_count
 4169               	.global	throttle_up_count
 4172               	throttle_up_count:
 4173 000a 0000      		.skip 2,0
 4174               	.global	max_observed_rpm
 4175               	.global	max_observed_rpm
 4178               	max_observed_rpm:
 4179 000c 0000 0000 		.skip 4,0
 4180               	.global	throttle_hightime
 4181               	.global	throttle_hightime
 4184               	throttle_hightime:
 4185 0010 0000 0000 		.skip 4,0
 4186               	.global	forwardback_hightime
 4187               	.global	forwardback_hightime
 4190               	forwardback_hightime:
 4191 0014 0000 0000 		.skip 4,0
 4192               	.global	leftright_hightime
 4193               	.global	leftright_hightime
 4196               	leftright_hightime:
 4197 0018 0000 0000 		.skip 4,0
 4198               		.comm x,4,1
 4199               		.comm accel_raw_data,2,1
 4200               		.comm accel_read,4,1
 4201               		.comm delay_loop,4,1
 4202               		.comm full_power_spin,2,1
 4203               		.comm in_config_mode,2,1
 4204               		.comm forward,2,1
 4205               		.comm backward,2,1
 4206               		.comm begin_brake,4,1
 4207               		.comm end_brake,4,1
 4208               		.comm flashy_led,2,1
 4209               		.comm full_spin_time_ms,4,1
 4210               		.comm half_spin_time,4,1
 4211               		.comm led_on,4,1
 4212               		.comm led_off,4,1
 4213               		.comm led_ref,4,1
 4214               		.comm led_hold_over,4,1
 4215               		.comm throttle_percent,4,1
 4216               		.comm config_mode_throttle_percent,4,1
 4217               		.comm power_kill_length,4,1
 4218               		.comm power_kill_part1,4,1
 4219               		.comm power_kill_part2,4,1
 4220               		.comm braking_length,4,1
 4221               		.comm g,4,1
 4222               		.comm rpm,4,1
 4223               		.comm steering_multiplier,4,1
 4224               		.comm leftright,4,1
 4225               		.comm forwardback,4,1
 4226               		.comm throttle,4,1
 4227               		.comm throttle_hilow,2,1
 4228               		.comm forwardback_hilow,2,1
 4229               		.comm leftright_hilow,2,1
 4230               		.comm led_is_on_now,2,1
 4231               	.global	saved_data_valid
 4232               		.section	.eeprom,"aw",@progbits
 4235               	saved_data_valid:
 4236 0000 0000      		.skip 2,0
 4237               	.global	led_adjust_save
 4240               	led_adjust_save:
 4241 0002 0000      		.skip 2,0
 4242               	.global	tracking_comp_save_word1
 4245               	tracking_comp_save_word1:
 4246 0004 0000      		.skip 2,0
 4247               	.global	tracking_comp_save_word2
 4250               	tracking_comp_save_word2:
 4251 0006 0000      		.skip 2,0
 4252               	.global	heading_center_save
 4255               	heading_center_save:
 4256 0008 0000      		.skip 2,0
 4257               	.global	base_accel_save
 4260               	base_accel_save:
 4261 000a 0000      		.skip 2,0
 4462               	.Letext0:
DEFINED SYMBOLS
                            *ABS*:00000000 main.c
C:\Users\rich\AppData\Local\Temp/ccWIXgsU.s:2      *ABS*:0000003f __SREG__
C:\Users\rich\AppData\Local\Temp/ccWIXgsU.s:3      *ABS*:0000003e __SP_H__
C:\Users\rich\AppData\Local\Temp/ccWIXgsU.s:4      *ABS*:0000003d __SP_L__
C:\Users\rich\AppData\Local\Temp/ccWIXgsU.s:5      *ABS*:00000034 __CCP__
C:\Users\rich\AppData\Local\Temp/ccWIXgsU.s:6      *ABS*:00000000 __tmp_reg__
C:\Users\rich\AppData\Local\Temp/ccWIXgsU.s:7      *ABS*:00000001 __zero_reg__
C:\Users\rich\AppData\Local\Temp/ccWIXgsU.s:17     .text:00000000 eeprom_read_byte
C:\Users\rich\AppData\Local\Temp/ccWIXgsU.s:50     .text:00000010 eeprom_write_byte
C:\Users\rich\AppData\Local\Temp/ccWIXgsU.s:88     .text:0000002a get_config_constants
C:\Users\rich\AppData\Local\Temp/ccWIXgsU.s:4139   .data:00000034 base_accel
                            *COM*:00000004 leftright
                            *COM*:00000004 x
C:\Users\rich\AppData\Local\Temp/ccWIXgsU.s:4052   .data:0000000a heading_center
C:\Users\rich\AppData\Local\Temp/ccWIXgsU.s:262    .text:00000100 config_mode
                            *COM*:00000004 config_mode_throttle_percent
                            *COM*:00000002 flashy_led
C:\Users\rich\AppData\Local\Temp/ccWIXgsU.s:4057   .data:0000000c heading_leftthresh
C:\Users\rich\AppData\Local\Temp/ccWIXgsU.s:4123   .data:0000002c tracking_comp
C:\Users\rich\AppData\Local\Temp/ccWIXgsU.s:4062   .data:0000000e heading_rightthresh
C:\Users\rich\AppData\Local\Temp/ccWIXgsU.s:4131   .data:00000030 led_adjust
C:\Users\rich\AppData\Local\Temp/ccWIXgsU.s:582    .text:00000434 setup
                            *COM*:00000004 throttle
C:\Users\rich\AppData\Local\Temp/ccWIXgsU.s:772    .text:000004f8 do_spin_180
                            *COM*:00000004 half_spin_time
                            *COM*:00000004 begin_brake
                            *COM*:00000004 end_brake
                            *COM*:00000004 led_hold_over
                            *COM*:00000002 forward
                            *COM*:00000002 backward
C:\Users\rich\AppData\Local\Temp/ccWIXgsU.s:4154   .bss:00000004 alternate_motor_cycle
                            *COM*:00000004 power_kill_part1
                            *COM*:00000004 power_kill_part2
                            *COM*:00000004 led_on
                            *COM*:00000004 led_off
                            *COM*:00000004 led_ref
                            *COM*:00000002 led_is_on_now
C:\Users\rich\AppData\Local\Temp/ccWIXgsU.s:1325   .text:000008fe motors_off
C:\Users\rich\AppData\Local\Temp/ccWIXgsU.s:1341   .text:00000904 motors_left
C:\Users\rich\AppData\Local\Temp/ccWIXgsU.s:1357   .text:0000090a motor1_on
C:\Users\rich\AppData\Local\Temp/ccWIXgsU.s:1373   .text:00000910 motor2_on
C:\Users\rich\AppData\Local\Temp/ccWIXgsU.s:1389   .text:00000916 reset_rc
C:\Users\rich\AppData\Local\Temp/ccWIXgsU.s:4184   .bss:00000010 throttle_hightime
C:\Users\rich\AppData\Local\Temp/ccWIXgsU.s:4196   .bss:00000018 leftright_hightime
C:\Users\rich\AppData\Local\Temp/ccWIXgsU.s:4190   .bss:00000014 forwardback_hightime
C:\Users\rich\AppData\Local\Temp/ccWIXgsU.s:1416   .text:00000948 throttle_change
C:\Users\rich\AppData\Local\Temp/ccWIXgsU.s:4166   .bss:00000008 rotations_since_throttle_was_set
                            *COM*:00000002 throttle_hilow
C:\Users\rich\AppData\Local\Temp/ccWIXgsU.s:1530   .text:00000a40 leftright_change
                            *COM*:00000002 leftright_hilow
C:\Users\rich\AppData\Local\Temp/ccWIXgsU.s:1619   .text:00000b02 forwardback_change
                            *COM*:00000004 forwardback
                            *COM*:00000002 forwardback_hilow
C:\Users\rich\AppData\Local\Temp/ccWIXgsU.s:1684   .text:00000b8c __vector_3
C:\Users\rich\AppData\Local\Temp/ccWIXgsU.s:1765   .text:00000c1e SetupTimer1
C:\Users\rich\AppData\Local\Temp/ccWIXgsU.s:1782   .text:00000c2a adc_init
C:\Users\rich\AppData\Local\Temp/ccWIXgsU.s:1802   .text:00000c3c read_adc
C:\Users\rich\AppData\Local\Temp/ccWIXgsU.s:1832   .text:00000c62 main_calculations
C:\Users\rich\AppData\Local\Temp/ccWIXgsU.s:4037   .data:00000004 forwardback_center
C:\Users\rich\AppData\Local\Temp/ccWIXgsU.s:4042   .data:00000006 forwardback_forwardthresh
C:\Users\rich\AppData\Local\Temp/ccWIXgsU.s:4047   .data:00000008 forwardback_backthresh
                            *COM*:00000002 accel_raw_data
                            *COM*:00000004 accel_read
C:\Users\rich\AppData\Local\Temp/ccWIXgsU.s:4099   .data:00000020 g_per_adc_increment
                            *COM*:00000004 g
C:\Users\rich\AppData\Local\Temp/ccWIXgsU.s:4091   .data:0000001c radius
                            *COM*:00000004 rpm
C:\Users\rich\AppData\Local\Temp/ccWIXgsU.s:4178   .bss:0000000c max_observed_rpm
                            *COM*:00000004 full_spin_time_ms
C:\Users\rich\AppData\Local\Temp/ccWIXgsU.s:4107   .data:00000024 forward_comp
C:\Users\rich\AppData\Local\Temp/ccWIXgsU.s:4115   .data:00000028 backward_comp
C:\Users\rich\AppData\Local\Temp/ccWIXgsU.s:4027   .data:00000000 throttle_low
C:\Users\rich\AppData\Local\Temp/ccWIXgsU.s:4032   .data:00000002 throttle_high
                            *COM*:00000004 throttle_percent
                            *COM*:00000002 in_config_mode
C:\Users\rich\AppData\Local\Temp/ccWIXgsU.s:4144   .data:00000036 turn_speed
                            *COM*:00000004 steering_multiplier
                            *COM*:00000002 full_power_spin
C:\Users\rich\AppData\Local\Temp/ccWIXgsU.s:4067   .data:00000010 min_rpm
C:\Users\rich\AppData\Local\Temp/ccWIXgsU.s:4083   .data:00000018 max_g
C:\Users\rich\AppData\Local\Temp/ccWIXgsU.s:4075   .data:00000014 max_allowed_rpm
                            *COM*:00000004 braking_length
                            *COM*:00000004 power_kill_length
C:\Users\rich\AppData\Local\Temp/ccWIXgsU.s:2846   .text:000016b8 save_config
C:\Users\rich\AppData\Local\Temp/ccWIXgsU.s:4235   .eeprom:00000000 saved_data_valid
C:\Users\rich\AppData\Local\Temp/ccWIXgsU.s:4240   .eeprom:00000002 led_adjust_save
C:\Users\rich\AppData\Local\Temp/ccWIXgsU.s:4245   .eeprom:00000004 tracking_comp_save_word1
C:\Users\rich\AppData\Local\Temp/ccWIXgsU.s:4250   .eeprom:00000006 tracking_comp_save_word2
C:\Users\rich\AppData\Local\Temp/ccWIXgsU.s:4255   .eeprom:00000008 heading_center_save
C:\Users\rich\AppData\Local\Temp/ccWIXgsU.s:4260   .eeprom:0000000a base_accel_save
C:\Users\rich\AppData\Local\Temp/ccWIXgsU.s:2983   .text:000017b0 safety_and_idle
C:\Users\rich\AppData\Local\Temp/ccWIXgsU.s:4172   .bss:0000000a throttle_up_count
C:\Users\rich\AppData\Local\Temp/ccWIXgsU.s:4160   .bss:00000006 got_centered_forwardback
C:\Users\rich\AppData\Local\Temp/ccWIXgsU.s:3795   .text:00001c80 load_config
C:\Users\rich\AppData\Local\Temp/ccWIXgsU.s:3945   .text:00001d92 main
C:\Users\rich\AppData\Local\Temp/ccWIXgsU.s:4021   .bss:00000000 rotation_count
                            *COM*:00000004 delay_loop

UNDEFINED SYMBOLS
__divmodhi4
__ltsf2
__mulsf3
__addsf3
__gtsf2
__gesf2
__subsf3
__floatunsisf
__floatsisf
__udivmodhi4
__mulsi3
__divmodsi4
__divsf3
sqrt
__fixsfsi
__eqsf2
__lesf2
__eewr_word
__fixunssfsi
__eerd_word
__do_copy_data
__do_clear_bss
